
Lab4_Digital_filter.elf:     file format elf32-littlearm

Sections:
Idx Name          Size      VMA       LMA       File off  Algn
  0 .text         00002a18  00000000  00000000  00010000  2**2
                  CONTENTS, ALLOC, LOAD, READONLY, CODE
  1 .relocate     00000000  20000000  20000000  00012a18  2**0
                  CONTENTS
  2 .bss          0000003c  20000000  20000000  00020000  2**2
                  ALLOC
  3 .stack        00002004  2000003c  2000003c  00020000  2**0
                  ALLOC
  4 .ARM.attributes 00000028  00000000  00000000  00012a18  2**0
                  CONTENTS, READONLY
  5 .comment      00000059  00000000  00000000  00012a40  2**0
                  CONTENTS, READONLY
  6 .debug_info   0000861f  00000000  00000000  00012a99  2**0
                  CONTENTS, READONLY, DEBUGGING
  7 .debug_abbrev 0000055e  00000000  00000000  0001b0b8  2**0
                  CONTENTS, READONLY, DEBUGGING
  8 .debug_loc    000000f8  00000000  00000000  0001b616  2**0
                  CONTENTS, READONLY, DEBUGGING
  9 .debug_aranges 00000080  00000000  00000000  0001b70e  2**0
                  CONTENTS, READONLY, DEBUGGING
 10 .debug_ranges 00000060  00000000  00000000  0001b78e  2**0
                  CONTENTS, READONLY, DEBUGGING
 11 .debug_macro  000008ce  00000000  00000000  0001b7ee  2**0
                  CONTENTS, READONLY, DEBUGGING
 12 .debug_line   0000127e  00000000  00000000  0001c0bc  2**0
                  CONTENTS, READONLY, DEBUGGING
 13 .debug_str    0008470c  00000000  00000000  0001d33a  2**0
                  CONTENTS, READONLY, DEBUGGING
 14 .debug_frame  00000404  00000000  00000000  000a1a48  2**2
                  CONTENTS, READONLY, DEBUGGING

Disassembly of section .text:

00000000 <exception_table>:
       0:	40 20 00 20 19 01 00 00 15 01 00 00 15 01 00 00     @ . ............
	...
      2c:	15 01 00 00 00 00 00 00 00 00 00 00 15 01 00 00     ................
      3c:	15 01 00 00 15 01 00 00 15 01 00 00 15 01 00 00     ................
      4c:	15 01 00 00 15 01 00 00 15 01 00 00 15 01 00 00     ................
      5c:	15 01 00 00 15 01 00 00 15 01 00 00 15 01 00 00     ................
      6c:	15 01 00 00 15 01 00 00 15 01 00 00 15 01 00 00     ................
      7c:	15 01 00 00 15 01 00 00 15 01 00 00 15 01 00 00     ................
      8c:	39 04 00 00 15 01 00 00 15 01 00 00 15 01 00 00     9...............
      9c:	15 01 00 00 15 01 00 00 15 01 00 00 15 01 00 00     ................
      ac:	15 01 00 00 00 00 00 00                             ........

000000b4 <__do_global_dtors_aux>:
      b4:	b510      	push	{r4, lr}
      b6:	4c06      	ldr	r4, [pc, #24]	; (d0 <__do_global_dtors_aux+0x1c>)
      b8:	7823      	ldrb	r3, [r4, #0]
      ba:	2b00      	cmp	r3, #0
      bc:	d107      	bne.n	ce <__do_global_dtors_aux+0x1a>
      be:	4b05      	ldr	r3, [pc, #20]	; (d4 <__do_global_dtors_aux+0x20>)
      c0:	2b00      	cmp	r3, #0
      c2:	d002      	beq.n	ca <__do_global_dtors_aux+0x16>
      c4:	4804      	ldr	r0, [pc, #16]	; (d8 <__do_global_dtors_aux+0x24>)
      c6:	e000      	b.n	ca <__do_global_dtors_aux+0x16>
      c8:	bf00      	nop
      ca:	2301      	movs	r3, #1
      cc:	7023      	strb	r3, [r4, #0]
      ce:	bd10      	pop	{r4, pc}
      d0:	20000000 	.word	0x20000000
      d4:	00000000 	.word	0x00000000
      d8:	00002a18 	.word	0x00002a18

000000dc <frame_dummy>:
      dc:	4b08      	ldr	r3, [pc, #32]	; (100 <frame_dummy+0x24>)
      de:	b510      	push	{r4, lr}
      e0:	2b00      	cmp	r3, #0
      e2:	d003      	beq.n	ec <frame_dummy+0x10>
      e4:	4907      	ldr	r1, [pc, #28]	; (104 <frame_dummy+0x28>)
      e6:	4808      	ldr	r0, [pc, #32]	; (108 <frame_dummy+0x2c>)
      e8:	e000      	b.n	ec <frame_dummy+0x10>
      ea:	bf00      	nop
      ec:	4807      	ldr	r0, [pc, #28]	; (10c <frame_dummy+0x30>)
      ee:	6803      	ldr	r3, [r0, #0]
      f0:	2b00      	cmp	r3, #0
      f2:	d100      	bne.n	f6 <frame_dummy+0x1a>
      f4:	bd10      	pop	{r4, pc}
      f6:	4b06      	ldr	r3, [pc, #24]	; (110 <frame_dummy+0x34>)
      f8:	2b00      	cmp	r3, #0
      fa:	d0fb      	beq.n	f4 <frame_dummy+0x18>
      fc:	4798      	blx	r3
      fe:	e7f9      	b.n	f4 <frame_dummy+0x18>
     100:	00000000 	.word	0x00000000
     104:	20000004 	.word	0x20000004
     108:	00002a18 	.word	0x00002a18
     10c:	00002a18 	.word	0x00002a18
     110:	00000000 	.word	0x00000000

00000114 <Dummy_Handler>:

/**
 * \brief Default interrupt handler for unused IRQs.
 */
void Dummy_Handler(void)
{
     114:	e7fe      	b.n	114 <Dummy_Handler>
	...

00000118 <Reset_Handler>:
{
     118:	b5f8      	push	{r3, r4, r5, r6, r7, lr}
        if (pSrc != pDest) {
     11a:	4a2a      	ldr	r2, [pc, #168]	; (1c4 <Reset_Handler+0xac>)
     11c:	4b2a      	ldr	r3, [pc, #168]	; (1c8 <Reset_Handler+0xb0>)
     11e:	429a      	cmp	r2, r3
     120:	d011      	beq.n	146 <Reset_Handler+0x2e>
                for (; pDest < &_erelocate;) {
     122:	001a      	movs	r2, r3
     124:	4b29      	ldr	r3, [pc, #164]	; (1cc <Reset_Handler+0xb4>)
     126:	429a      	cmp	r2, r3
     128:	d20d      	bcs.n	146 <Reset_Handler+0x2e>
     12a:	4a29      	ldr	r2, [pc, #164]	; (1d0 <Reset_Handler+0xb8>)
     12c:	3303      	adds	r3, #3
     12e:	1a9b      	subs	r3, r3, r2
     130:	089b      	lsrs	r3, r3, #2
     132:	3301      	adds	r3, #1
     134:	009b      	lsls	r3, r3, #2
     136:	2200      	movs	r2, #0
                        *pDest++ = *pSrc++;
     138:	4823      	ldr	r0, [pc, #140]	; (1c8 <Reset_Handler+0xb0>)
     13a:	4922      	ldr	r1, [pc, #136]	; (1c4 <Reset_Handler+0xac>)
     13c:	588c      	ldr	r4, [r1, r2]
     13e:	5084      	str	r4, [r0, r2]
     140:	3204      	adds	r2, #4
                for (; pDest < &_erelocate;) {
     142:	429a      	cmp	r2, r3
     144:	d1fa      	bne.n	13c <Reset_Handler+0x24>
        for (pDest = &_szero; pDest < &_ezero;) {
     146:	4a23      	ldr	r2, [pc, #140]	; (1d4 <Reset_Handler+0xbc>)
     148:	4b23      	ldr	r3, [pc, #140]	; (1d8 <Reset_Handler+0xc0>)
     14a:	429a      	cmp	r2, r3
     14c:	d20a      	bcs.n	164 <Reset_Handler+0x4c>
     14e:	43d3      	mvns	r3, r2
     150:	4921      	ldr	r1, [pc, #132]	; (1d8 <Reset_Handler+0xc0>)
     152:	185b      	adds	r3, r3, r1
     154:	2103      	movs	r1, #3
     156:	438b      	bics	r3, r1
     158:	3304      	adds	r3, #4
     15a:	189b      	adds	r3, r3, r2
                *pDest++ = 0;
     15c:	2100      	movs	r1, #0
     15e:	c202      	stmia	r2!, {r1}
        for (pDest = &_szero; pDest < &_ezero;) {
     160:	4293      	cmp	r3, r2
     162:	d1fc      	bne.n	15e <Reset_Handler+0x46>
        SCB->VTOR = ((uint32_t) pSrc & SCB_VTOR_TBLOFF_Msk);
     164:	4a1d      	ldr	r2, [pc, #116]	; (1dc <Reset_Handler+0xc4>)
     166:	21ff      	movs	r1, #255	; 0xff
     168:	4b1d      	ldr	r3, [pc, #116]	; (1e0 <Reset_Handler+0xc8>)
     16a:	438b      	bics	r3, r1
     16c:	6093      	str	r3, [r2, #8]
        SBMATRIX->SFR[SBMATRIX_SLAVE_HMCRAMC0].reg = 2;
     16e:	39fd      	subs	r1, #253	; 0xfd
     170:	2390      	movs	r3, #144	; 0x90
     172:	005b      	lsls	r3, r3, #1
     174:	4a1b      	ldr	r2, [pc, #108]	; (1e4 <Reset_Handler+0xcc>)
     176:	50d1      	str	r1, [r2, r3]
        USB->DEVICE.QOSCTRL.bit.CQOS = 2;
     178:	4a1b      	ldr	r2, [pc, #108]	; (1e8 <Reset_Handler+0xd0>)
     17a:	78d3      	ldrb	r3, [r2, #3]
     17c:	2503      	movs	r5, #3
     17e:	43ab      	bics	r3, r5
     180:	2402      	movs	r4, #2
     182:	4323      	orrs	r3, r4
     184:	70d3      	strb	r3, [r2, #3]
        USB->DEVICE.QOSCTRL.bit.DQOS = 2;
     186:	78d3      	ldrb	r3, [r2, #3]
     188:	270c      	movs	r7, #12
     18a:	43bb      	bics	r3, r7
     18c:	2608      	movs	r6, #8
     18e:	4333      	orrs	r3, r6
     190:	70d3      	strb	r3, [r2, #3]
        DMAC->QOSCTRL.bit.DQOS = 2;
     192:	4b16      	ldr	r3, [pc, #88]	; (1ec <Reset_Handler+0xd4>)
     194:	7b98      	ldrb	r0, [r3, #14]
     196:	2230      	movs	r2, #48	; 0x30
     198:	4390      	bics	r0, r2
     19a:	2220      	movs	r2, #32
     19c:	4310      	orrs	r0, r2
     19e:	7398      	strb	r0, [r3, #14]
        DMAC->QOSCTRL.bit.FQOS = 2;
     1a0:	7b99      	ldrb	r1, [r3, #14]
     1a2:	43b9      	bics	r1, r7
     1a4:	4331      	orrs	r1, r6
     1a6:	7399      	strb	r1, [r3, #14]
        DMAC->QOSCTRL.bit.WRBQOS = 2;
     1a8:	7b9a      	ldrb	r2, [r3, #14]
     1aa:	43aa      	bics	r2, r5
     1ac:	4322      	orrs	r2, r4
     1ae:	739a      	strb	r2, [r3, #14]
        NVMCTRL->CTRLB.bit.MANW = 1;
     1b0:	4a0f      	ldr	r2, [pc, #60]	; (1f0 <Reset_Handler+0xd8>)
     1b2:	6853      	ldr	r3, [r2, #4]
     1b4:	2180      	movs	r1, #128	; 0x80
     1b6:	430b      	orrs	r3, r1
     1b8:	6053      	str	r3, [r2, #4]
        __libc_init_array();
     1ba:	4b0e      	ldr	r3, [pc, #56]	; (1f4 <Reset_Handler+0xdc>)
     1bc:	4798      	blx	r3
        main();
     1be:	4b0e      	ldr	r3, [pc, #56]	; (1f8 <Reset_Handler+0xe0>)
     1c0:	4798      	blx	r3
     1c2:	e7fe      	b.n	1c2 <Reset_Handler+0xaa>
     1c4:	00002a18 	.word	0x00002a18
     1c8:	20000000 	.word	0x20000000
     1cc:	20000000 	.word	0x20000000
     1d0:	20000004 	.word	0x20000004
     1d4:	20000000 	.word	0x20000000
     1d8:	2000003c 	.word	0x2000003c
     1dc:	e000ed00 	.word	0xe000ed00
     1e0:	00000000 	.word	0x00000000
     1e4:	41007000 	.word	0x41007000
     1e8:	41005000 	.word	0x41005000
     1ec:	41004800 	.word	0x41004800
     1f0:	41004000 	.word	0x41004000
     1f4:	000028f1 	.word	0x000028f1
     1f8:	0000040d 	.word	0x0000040d

000001fc <clock_setup>:


void clock_setup(){


	SYSCTRL->INTFLAG.reg = SYSCTRL_INTFLAG_BOD33RDY | SYSCTRL_INTFLAG_BOD33DET | SYSCTRL_INTFLAG_DFLLRDY;
     1fc:	4b28      	ldr	r3, [pc, #160]	; (2a0 <clock_setup+0xa4>)
     1fe:	22c2      	movs	r2, #194	; 0xc2
     200:	00d2      	lsls	r2, r2, #3
     202:	609a      	str	r2, [r3, #8]

//Setting the clock source 

	
	//SYSCTRL->OSC8M.reg |= SYSCTRL_OSC8M_FRANGE_2; //Frequency range contol 2= 6MHz-8MHz
	SYSCTRL->OSC8M.bit.PRESC = 0; //Prescaler factor, will divide main clock by this factor  0 = divide by 1
     204:	6a1a      	ldr	r2, [r3, #32]
     206:	4927      	ldr	r1, [pc, #156]	; (2a4 <clock_setup+0xa8>)
     208:	400a      	ands	r2, r1
     20a:	621a      	str	r2, [r3, #32]
	SYSCTRL->OSC8M.reg |= SYSCTRL_OSC8M_ONDEMAND; // Will run main clock only when requested by peripheral p.152
     20c:	6a1a      	ldr	r2, [r3, #32]
     20e:	2180      	movs	r1, #128	; 0x80
     210:	430a      	orrs	r2, r1
     212:	621a      	str	r2, [r3, #32]
	SYSCTRL->OSC8M.reg |= SYSCTRL_OSC8M_ENABLE; //ENABLE 8mHZ CLOCK 
     214:	6a1a      	ldr	r2, [r3, #32]
     216:	397e      	subs	r1, #126	; 0x7e
     218:	430a      	orrs	r2, r1
     21a:	621a      	str	r2, [r3, #32]
	
//Setting up the generic clock synchronization	
	GCLK->CTRL.reg = GCLK_CTRL_SWRST; //Software reset started
     21c:	2201      	movs	r2, #1
     21e:	4b22      	ldr	r3, [pc, #136]	; (2a8 <clock_setup+0xac>)
     220:	701a      	strb	r2, [r3, #0]
	while(GCLK->STATUS.reg == GCLK_STATUS_SYNCBUSY){}
     222:	001a      	movs	r2, r3
     224:	7853      	ldrb	r3, [r2, #1]
     226:	b2db      	uxtb	r3, r3
     228:	2b80      	cmp	r3, #128	; 0x80
     22a:	d0fb      	beq.n	224 <clock_setup+0x28>
	
	
//Configuring generic clock generator	
	GCLK->GENDIV.reg = 0<<0 | 1<<8;
     22c:	4b1e      	ldr	r3, [pc, #120]	; (2a8 <clock_setup+0xac>)
     22e:	2280      	movs	r2, #128	; 0x80
     230:	0052      	lsls	r2, r2, #1
     232:	609a      	str	r2, [r3, #8]
							//GENERATOR 0 SELECTION
							//1 division bit set -> divide source by 1 p.114
							
			   
	GCLK->GENCTRL.reg =  GCLK_GENCTRL_ID(0)  | GCLK_GENCTRL_RUNSTDBY | 0<<20 | GCLK_GENCTRL_OE | GCLK_GENCTRL_GENEN | GCLK_GENCTRL_SRC_OSC8M; 
     234:	4a1d      	ldr	r2, [pc, #116]	; (2ac <clock_setup+0xb0>)
     236:	605a      	str	r2, [r3, #4]
							//0<<20 = divide Selection is generator source divided by GENDIV.DIV     
							//Output enable   
							//enable gen Clk ctr 
							//8MHz clock source		
		
	while (GCLK->STATUS.bit.SYNCBUSY){}	//waiting for sync to complete
     238:	001a      	movs	r2, r3
     23a:	7853      	ldrb	r3, [r2, #1]
     23c:	09db      	lsrs	r3, r3, #7
     23e:	d1fc      	bne.n	23a <clock_setup+0x3e>
	GCLK->CLKCTRL.reg |= 0<<14;	//disable clock	
     240:	4b19      	ldr	r3, [pc, #100]	; (2a8 <clock_setup+0xac>)
     242:	885a      	ldrh	r2, [r3, #2]
     244:	b292      	uxth	r2, r2
     246:	805a      	strh	r2, [r3, #2]
									
					
	GCLK->CLKCTRL.reg = GCLK_CLKCTRL_ID_EIC | GCLK_CLKCTRL_CLKEN | GCLK_CLKCTRL_GEN_GCLK0;
     248:	4a19      	ldr	r2, [pc, #100]	; (2b0 <clock_setup+0xb4>)
     24a:	805a      	strh	r2, [r3, #2]
							//generic clock configured for EIC
							//generic clock enable
							//generic clock generator 0 selected

	GCLK->CLKCTRL.reg = GCLK_CLKCTRL_ID_ADC | GCLK_CLKCTRL_CLKEN | GCLK_CLKCTRL_GEN_GCLK0;
     24c:	4a19      	ldr	r2, [pc, #100]	; (2b4 <clock_setup+0xb8>)
     24e:	805a      	strh	r2, [r3, #2]
							//generic clock configured for ADC
							//generic clock enable
							//generic clock generator 0 selected	
							
	GCLK->CLKCTRL.reg = GCLK_CLKCTRL_ID_DAC | GCLK_CLKCTRL_CLKEN | GCLK_CLKCTRL_GEN_GCLK0;						
     250:	4a19      	ldr	r2, [pc, #100]	; (2b8 <clock_setup+0xbc>)
     252:	805a      	strh	r2, [r3, #2]
							//Generic clock setup for DAC
	
	GCLK->CLKCTRL.reg = GCLK_CLKCTRL_ID_TC4_TC5 | GCLK_CLKCTRL_GEN_GCLK0 | 1<<14;	
     254:	4a19      	ldr	r2, [pc, #100]	; (2bc <clock_setup+0xc0>)
     256:	805a      	strh	r2, [r3, #2]
							//setup genCLK for TC4
	
	while(GCLK->STATUS.reg == GCLK_STATUS_SYNCBUSY){}
     258:	001a      	movs	r2, r3
     25a:	7853      	ldrb	r3, [r2, #1]
     25c:	b2db      	uxtb	r3, r3
     25e:	2b80      	cmp	r3, #128	; 0x80
     260:	d0fb      	beq.n	25a <clock_setup+0x5e>
	
//Setting up the Power Manager (CPU and clock buses AHB AND APB)
	//PM->SLEEP.reg = PM_SLEEP_IDLE_APB;  
	//CPU, AHB, AND APB Clock domains stopped until called
	
	PM->CPUSEL.reg = PM_CPUSEL_CPUDIV_DIV1;
     262:	4b17      	ldr	r3, [pc, #92]	; (2c0 <clock_setup+0xc4>)
     264:	2200      	movs	r2, #0
     266:	721a      	strb	r2, [r3, #8]
	//PRESCALER : DIVIDES THE MAIN CLOCK SOURCE BY 1, THIS IS CLOCK THAT RUNS CPU
	PM->APBASEL.reg = PM_APBASEL_APBADIV_DIV1; //PRESCALER: DIVIDES THE  MAIN CLOCK BY 1, THIS CLOCK RUNS THE APBA TO PERIPHERAL
     268:	725a      	strb	r2, [r3, #9]
	PM->APBBSEL.reg = PM_APBBSEL_APBBDIV_DIV1; //divide by 1
     26a:	729a      	strb	r2, [r3, #10]
	PM->APBCSEL.reg = PM_APBCSEL_APBCDIV_DIV1; //divide by 1
     26c:	72da      	strb	r2, [r3, #11]
	
	PM->APBAMASK.reg |= PM_APBAMASK_EIC;  //Enable EIC clock
     26e:	699a      	ldr	r2, [r3, #24]
     270:	2140      	movs	r1, #64	; 0x40
     272:	430a      	orrs	r2, r1
     274:	619a      	str	r2, [r3, #24]
	PM->APBBMASK.reg |= PM_APBBMASK_PORT; //Enable Port io clock
     276:	69da      	ldr	r2, [r3, #28]
     278:	3938      	subs	r1, #56	; 0x38
     27a:	430a      	orrs	r2, r1
     27c:	61da      	str	r2, [r3, #28]
	PM->APBCMASK.reg |= 1<<16; //ADC clock enable
     27e:	6a19      	ldr	r1, [r3, #32]
     280:	2280      	movs	r2, #128	; 0x80
     282:	0252      	lsls	r2, r2, #9
     284:	430a      	orrs	r2, r1
     286:	621a      	str	r2, [r3, #32]
	PM->APBCMASK.reg |= PM_APBCMASK_DAC; //Enable ADC clock
     288:	6a19      	ldr	r1, [r3, #32]
     28a:	2280      	movs	r2, #128	; 0x80
     28c:	02d2      	lsls	r2, r2, #11
     28e:	430a      	orrs	r2, r1
     290:	621a      	str	r2, [r3, #32]
	PM->APBCMASK.reg |= PM_APBCMASK_TC4;	//enable the TC4 APB
     292:	6a19      	ldr	r1, [r3, #32]
     294:	2280      	movs	r2, #128	; 0x80
     296:	0152      	lsls	r2, r2, #5
     298:	430a      	orrs	r2, r1
     29a:	621a      	str	r2, [r3, #32]
	
}
     29c:	4770      	bx	lr
     29e:	46c0      	nop			; (mov r8, r8)
     2a0:	40000800 	.word	0x40000800
     2a4:	fffffcff 	.word	0xfffffcff
     2a8:	40000c00 	.word	0x40000c00
     2ac:	00290600 	.word	0x00290600
     2b0:	00004005 	.word	0x00004005
     2b4:	0000401e 	.word	0x0000401e
     2b8:	00004021 	.word	0x00004021
     2bc:	0000401c 	.word	0x0000401c
     2c0:	40000400 	.word	0x40000400

000002c4 <DAC_setup>:

void DAC_setup()
{
	DAC->CTRLA.reg = DAC_CTRLA_SWRST;	//Software reset
     2c4:	2201      	movs	r2, #1
     2c6:	4b08      	ldr	r3, [pc, #32]	; (2e8 <DAC_setup+0x24>)
     2c8:	701a      	strb	r2, [r3, #0]
	while(DAC->STATUS.bit.SYNCBUSY);
     2ca:	001a      	movs	r2, r3
     2cc:	79d3      	ldrb	r3, [r2, #7]
     2ce:	09db      	lsrs	r3, r3, #7
     2d0:	d1fc      	bne.n	2cc <DAC_setup+0x8>
	
	DAC->CTRLB.reg = DAC_CTRLB_REFSEL_AVCC | DAC_CTRLB_EOEN;
     2d2:	4b05      	ldr	r3, [pc, #20]	; (2e8 <DAC_setup+0x24>)
     2d4:	2241      	movs	r2, #65	; 0x41
     2d6:	705a      	strb	r2, [r3, #1]
	//AVCC reference
	//Drive output to Vout pin
	
	DAC->CTRLA.reg = 1<<1;  //Enable DAC 
     2d8:	3a3f      	subs	r2, #63	; 0x3f
     2da:	701a      	strb	r2, [r3, #0]
	while(DAC->STATUS.reg == DAC_STATUS_SYNCBUSY);
     2dc:	001a      	movs	r2, r3
     2de:	79d3      	ldrb	r3, [r2, #7]
     2e0:	b2db      	uxtb	r3, r3
     2e2:	2b80      	cmp	r3, #128	; 0x80
     2e4:	d0fb      	beq.n	2de <DAC_setup+0x1a>
}
     2e6:	4770      	bx	lr
     2e8:	42004800 	.word	0x42004800

000002ec <ADC_setup>:

void ADC_setup()
{
	ADC->CTRLA.reg |= 0<<1;	
     2ec:	4a16      	ldr	r2, [pc, #88]	; (348 <ADC_setup+0x5c>)
     2ee:	7813      	ldrb	r3, [r2, #0]
     2f0:	b2db      	uxtb	r3, r3
     2f2:	7013      	strb	r3, [r2, #0]
	while(ADC->STATUS.reg == ADC_STATUS_SYNCBUSY);
     2f4:	7e53      	ldrb	r3, [r2, #25]
     2f6:	b2db      	uxtb	r3, r3
     2f8:	2b80      	cmp	r3, #128	; 0x80
     2fa:	d0fb      	beq.n	2f4 <ADC_setup+0x8>
	ADC->CTRLA.reg = ADC_CTRLA_SWRST;
     2fc:	2201      	movs	r2, #1
     2fe:	4b12      	ldr	r3, [pc, #72]	; (348 <ADC_setup+0x5c>)
     300:	701a      	strb	r2, [r3, #0]
		//reset ADC software
	while(ADC->STATUS.reg == ADC_STATUS_SYNCBUSY);
     302:	001a      	movs	r2, r3
     304:	7e53      	ldrb	r3, [r2, #25]
     306:	b2db      	uxtb	r3, r3
     308:	2b80      	cmp	r3, #128	; 0x80
     30a:	d0fb      	beq.n	304 <ADC_setup+0x18>
		//synchronization must be complete to enable ADC
	ADC->REFCTRL.reg = ADC_REFCTRL_REFCOMP | ADC_REFCTRL_REFSEL_INTVCC1;
     30c:	4b0e      	ldr	r3, [pc, #56]	; (348 <ADC_setup+0x5c>)
     30e:	2282      	movs	r2, #130	; 0x82
     310:	705a      	strb	r2, [r3, #1]
		//ADC reference buffer offset compensation enable
		//1/2 VDDANA reference selected
	//ADC->AVGCTRL.reg = ADC_AVGCTRL_SAMPLENUM_1;
		//number of samples collected = 1
	ADC->SAMPCTRL.reg = 0x1;
     312:	3a81      	subs	r2, #129	; 0x81
     314:	70da      	strb	r2, [r3, #3]
		//Sampling time = (SAMPLEN +1)(ADC_clock/2) = ADC_clock since SAMPLEN set to 1.
	ADC->CTRLB.reg = ADC_CTRLB_PRESCALER_DIV32 | ADC_CTRLB_RESSEL_12BIT;
     316:	21c0      	movs	r1, #192	; 0xc0
     318:	0089      	lsls	r1, r1, #2
     31a:	8099      	strh	r1, [r3, #4]
		//ADC clock prescaler 8mhz/8=1Mhz
		//conversion result resolution = 12 bits
		//freerun mode
	ADC->INPUTCTRL.reg = ADC_INPUTCTRL_GAIN_DIV2 | ADC_INPUTCTRL_MUXNEG_GND | ADC_INPUTCTRL_MUXPOS_PIN1;
     31c:	490b      	ldr	r1, [pc, #44]	; (34c <ADC_setup+0x60>)
     31e:	6119      	str	r1, [r3, #16]
		//1/2(x) gain selected
		//negative mux input = GND
			//positive mux input = pin 1 -> PA03
	ADC->DBGCTRL.reg = ADC_DBGCTRL_DBGRUN;
     320:	212a      	movs	r1, #42	; 0x2a
     322:	545a      	strb	r2, [r3, r1]
		//ADC will run in debug mode
	
	//ADC->INTENSET.reg = ADC_INTENSET_RESRDY;
		//interrupt enable
	ADC->SWTRIG.bit.START = 1;
     324:	7b1a      	ldrb	r2, [r3, #12]
     326:	2102      	movs	r1, #2
     328:	430a      	orrs	r2, r1
     32a:	731a      	strb	r2, [r3, #12]
	while(ADC->STATUS.bit.SYNCBUSY== 1){}                                                                                                                                    
     32c:	001a      	movs	r2, r3
     32e:	7e53      	ldrb	r3, [r2, #25]
     330:	09db      	lsrs	r3, r3, #7
     332:	2b01      	cmp	r3, #1
     334:	d0fb      	beq.n	32e <ADC_setup+0x42>
		//Needed to start the first conversion.
	ADC->CTRLA.reg = ADC_CTRLA_ENABLE | ADC_CTRLA_RUNSTDBY;
     336:	2206      	movs	r2, #6
     338:	4b03      	ldr	r3, [pc, #12]	; (348 <ADC_setup+0x5c>)
     33a:	701a      	strb	r2, [r3, #0]
	while(ADC->STATUS.reg == ADC_STATUS_SYNCBUSY){}
     33c:	001a      	movs	r2, r3
     33e:	7e53      	ldrb	r3, [r2, #25]
     340:	b2db      	uxtb	r3, r3
     342:	2b80      	cmp	r3, #128	; 0x80
     344:	d0fb      	beq.n	33e <ADC_setup+0x52>
		//Enable ADC
		//Configured to run in standby
	
}
     346:	4770      	bx	lr
     348:	42004000 	.word	0x42004000
     34c:	0f001801 	.word	0x0f001801

00000350 <Port_setup>:


void Port_setup()
{
     350:	b510      	push	{r4, lr}
	Port *ports = PORT_INSTS;
	PortGroup *porA = &(ports->Group[0]);
	PortGroup *porB = &(ports->Group[0]);

	//porA->DIRCLR.reg = PORT_PA03;  //set to input terminal for ADC output 
	porA->PMUX[1].bit.PMUXO = 0x1; //set PA03 to Peripheral B which includes ADC
     352:	4b0e      	ldr	r3, [pc, #56]	; (38c <Port_setup+0x3c>)
     354:	2131      	movs	r1, #49	; 0x31
     356:	5c58      	ldrb	r0, [r3, r1]
     358:	220f      	movs	r2, #15
     35a:	4002      	ands	r2, r0
     35c:	2010      	movs	r0, #16
     35e:	4302      	orrs	r2, r0
     360:	545a      	strb	r2, [r3, r1]
	porA->PINCFG[3].bit.PMUXEN = 0x1; //Enable mux to PA03 
     362:	2443      	movs	r4, #67	; 0x43
     364:	5d1a      	ldrb	r2, [r3, r4]
     366:	2001      	movs	r0, #1
     368:	4302      	orrs	r2, r0
     36a:	551a      	strb	r2, [r3, r4]
	
	//DAC output setup
	//porA->DIRSET.reg = PORT_PA02;		//Set VOUT terminal for DAC output signal
	porA->PMUX[1].bit.PMUXE = 0x1;		//Peripheral B enabled for DAC
     36c:	5c5a      	ldrb	r2, [r3, r1]
     36e:	3c34      	subs	r4, #52	; 0x34
     370:	43a2      	bics	r2, r4
     372:	4302      	orrs	r2, r0
     374:	545a      	strb	r2, [r3, r1]
	porA->PINCFG[2].bit.PMUXEN = 0x1;	//Routed to PA02
     376:	3111      	adds	r1, #17
     378:	5c5a      	ldrb	r2, [r3, r1]
     37a:	4302      	orrs	r2, r0
     37c:	545a      	strb	r2, [r3, r1]
	
	porA->DIRSET.reg |= PORT_PA12;
     37e:	6899      	ldr	r1, [r3, #8]
     380:	2280      	movs	r2, #128	; 0x80
     382:	0152      	lsls	r2, r2, #5
     384:	430a      	orrs	r2, r1
     386:	609a      	str	r2, [r3, #8]
}
     388:	bd10      	pop	{r4, pc}
     38a:	46c0      	nop			; (mov r8, r8)
     38c:	41004400 	.word	0x41004400

00000390 <Timer4Setup>:


void Timer4Setup(void)
{	
	
	NVIC->ISER[0] |= 1<<19;  //Enable Interrupt for TC4	
     390:	4a1b      	ldr	r2, [pc, #108]	; (400 <Timer4Setup+0x70>)
     392:	6811      	ldr	r1, [r2, #0]
     394:	2380      	movs	r3, #128	; 0x80
     396:	031b      	lsls	r3, r3, #12
     398:	430b      	orrs	r3, r1
     39a:	6013      	str	r3, [r2, #0]
	
	Tc *tc = TC4;
	TcCount8 *tcc = &tc->COUNT8;						//tcc->_______.reg equivalent to writing TC4->COUNT8.________.reg=
	tcc->CTRLA.reg = 0;	//disable the TC4
     39c:	2200      	movs	r2, #0
     39e:	4b19      	ldr	r3, [pc, #100]	; (404 <Timer4Setup+0x74>)
     3a0:	801a      	strh	r2, [r3, #0]
	while(tcc->STATUS.bit.SYNCBUSY){}	//wait for sync of disable
     3a2:	001a      	movs	r2, r3
     3a4:	7bd3      	ldrb	r3, [r2, #15]
     3a6:	09db      	lsrs	r3, r3, #7
     3a8:	d1fc      	bne.n	3a4 <Timer4Setup+0x14>
	tcc->CTRLA.bit.PRESCALER = 0x5;	//divide by 64;
     3aa:	4b16      	ldr	r3, [pc, #88]	; (404 <Timer4Setup+0x74>)
     3ac:	881a      	ldrh	r2, [r3, #0]
     3ae:	4916      	ldr	r1, [pc, #88]	; (408 <Timer4Setup+0x78>)
     3b0:	4011      	ands	r1, r2
     3b2:	22a0      	movs	r2, #160	; 0xa0
     3b4:	00d2      	lsls	r2, r2, #3
     3b6:	430a      	orrs	r2, r1
     3b8:	801a      	strh	r2, [r3, #0]
	tcc->CTRLA.bit.WAVEGEN = 0x1;	//match frequency CC0=period, toggles on overflow
     3ba:	881a      	ldrh	r2, [r3, #0]
     3bc:	2160      	movs	r1, #96	; 0x60
     3be:	438a      	bics	r2, r1
     3c0:	2120      	movs	r1, #32
     3c2:	430a      	orrs	r2, r1
     3c4:	801a      	strh	r2, [r3, #0]
	tcc->CTRLA.bit.MODE = 0x1;	//8 bit mode
     3c6:	881a      	ldrh	r2, [r3, #0]
     3c8:	210c      	movs	r1, #12
     3ca:	438a      	bics	r2, r1
     3cc:	2104      	movs	r1, #4
     3ce:	430a      	orrs	r2, r1
     3d0:	801a      	strh	r2, [r3, #0]
	tcc->CC[0].reg = 0xF0;			//= 125 decimal
     3d2:	22f0      	movs	r2, #240	; 0xf0
     3d4:	761a      	strb	r2, [r3, #24]
	tcc->INTENSET.bit.OVF = 0x1;  //Enable overflow interrupt
     3d6:	7b5a      	ldrb	r2, [r3, #13]
     3d8:	2101      	movs	r1, #1
     3da:	430a      	orrs	r2, r1
     3dc:	735a      	strb	r2, [r3, #13]
	tcc->CTRLBSET.bit.ONESHOT = 0;	//turn off one shot mode
     3de:	795a      	ldrb	r2, [r3, #5]
     3e0:	2104      	movs	r1, #4
     3e2:	438a      	bics	r2, r1
     3e4:	715a      	strb	r2, [r3, #5]
	while(tcc->STATUS.bit.SYNCBUSY){}	//wait for sync to complete
     3e6:	001a      	movs	r2, r3
     3e8:	7bd3      	ldrb	r3, [r2, #15]
     3ea:	09db      	lsrs	r3, r3, #7
     3ec:	d1fc      	bne.n	3e8 <Timer4Setup+0x58>
	tcc->CTRLA.reg |= 1<<1;	//enable the TC4
     3ee:	4a05      	ldr	r2, [pc, #20]	; (404 <Timer4Setup+0x74>)
     3f0:	8813      	ldrh	r3, [r2, #0]
     3f2:	2102      	movs	r1, #2
     3f4:	430b      	orrs	r3, r1
     3f6:	8013      	strh	r3, [r2, #0]
	while(tcc->STATUS.bit.SYNCBUSY){}	//wait for sync of disabled
     3f8:	7bd3      	ldrb	r3, [r2, #15]
     3fa:	09db      	lsrs	r3, r3, #7
     3fc:	d1fc      	bne.n	3f8 <Timer4Setup+0x68>
}
     3fe:	4770      	bx	lr
     400:	e000e100 	.word	0xe000e100
     404:	42003000 	.word	0x42003000
     408:	fffff8ff 	.word	0xfffff8ff

0000040c <main>:
{	
     40c:	b510      	push	{r4, lr}
	clock_setup();
     40e:	4b05      	ldr	r3, [pc, #20]	; (424 <main+0x18>)
     410:	4798      	blx	r3
	Port_setup();
     412:	4b05      	ldr	r3, [pc, #20]	; (428 <main+0x1c>)
     414:	4798      	blx	r3
	ADC_setup();
     416:	4b05      	ldr	r3, [pc, #20]	; (42c <main+0x20>)
     418:	4798      	blx	r3
	DAC_setup();
     41a:	4b05      	ldr	r3, [pc, #20]	; (430 <main+0x24>)
     41c:	4798      	blx	r3
	Timer4Setup();
     41e:	4b05      	ldr	r3, [pc, #20]	; (434 <main+0x28>)
     420:	4798      	blx	r3
     422:	e7fe      	b.n	422 <main+0x16>
     424:	000001fd 	.word	0x000001fd
     428:	00000351 	.word	0x00000351
     42c:	000002ed 	.word	0x000002ed
     430:	000002c5 	.word	0x000002c5
     434:	00000391 	.word	0x00000391

00000438 <TC4_Handler>:

void TC4_Handler(void)
{
     438:	b5f0      	push	{r4, r5, r6, r7, lr}
     43a:	46de      	mov	lr, fp
     43c:	4657      	mov	r7, sl
     43e:	464e      	mov	r6, r9
     440:	4645      	mov	r5, r8
     442:	b5e0      	push	{r5, r6, r7, lr}
     444:	b087      	sub	sp, #28
	TcCount8 *tcc = &tc->COUNT8;
	
	
	
	
	ADC->SWTRIG.bit.START = 1;
     446:	4a4c      	ldr	r2, [pc, #304]	; (578 <TC4_Handler+0x140>)
     448:	7b13      	ldrb	r3, [r2, #12]
     44a:	2102      	movs	r1, #2
     44c:	430b      	orrs	r3, r1
     44e:	7313      	strb	r3, [r2, #12]
	while(ADC->STATUS.bit.SYNCBUSY== 1){}
     450:	7e53      	ldrb	r3, [r2, #25]
     452:	09db      	lsrs	r3, r3, #7
     454:	2b01      	cmp	r3, #1
     456:	d0fb      	beq.n	450 <TC4_Handler+0x18>

	while(ADC->STATUS.bit.SYNCBUSY== 1){}     //Read result register after synchronization complete
     458:	4a47      	ldr	r2, [pc, #284]	; (578 <TC4_Handler+0x140>)
     45a:	7e53      	ldrb	r3, [r2, #25]
     45c:	09db      	lsrs	r3, r3, #7
     45e:	2b01      	cmp	r3, #1
     460:	d0fb      	beq.n	45a <TC4_Handler+0x22>
	x_int = ADC->RESULT.reg;								//read result register
     462:	4b45      	ldr	r3, [pc, #276]	; (578 <TC4_Handler+0x140>)
     464:	8b58      	ldrh	r0, [r3, #26]
     466:	b280      	uxth	r0, r0
     468:	4b44      	ldr	r3, [pc, #272]	; (57c <TC4_Handler+0x144>)
     46a:	4798      	blx	r3
     46c:	4b44      	ldr	r3, [pc, #272]	; (580 <TC4_Handler+0x148>)
     46e:	6018      	str	r0, [r3, #0]
	
	x = (3.30*x_int)/4095;					//convert x to floating point 
     470:	6818      	ldr	r0, [r3, #0]
     472:	4c44      	ldr	r4, [pc, #272]	; (584 <TC4_Handler+0x14c>)
     474:	47a0      	blx	r4
     476:	4d44      	ldr	r5, [pc, #272]	; (588 <TC4_Handler+0x150>)
     478:	4a44      	ldr	r2, [pc, #272]	; (58c <TC4_Handler+0x154>)
     47a:	4b45      	ldr	r3, [pc, #276]	; (590 <TC4_Handler+0x158>)
     47c:	47a8      	blx	r5
     47e:	2200      	movs	r2, #0
     480:	4b44      	ldr	r3, [pc, #272]	; (594 <TC4_Handler+0x15c>)
     482:	4e45      	ldr	r6, [pc, #276]	; (598 <TC4_Handler+0x160>)
     484:	47b0      	blx	r6
     486:	4b45      	ldr	r3, [pc, #276]	; (59c <TC4_Handler+0x164>)
     488:	469b      	mov	fp, r3
     48a:	4798      	blx	r3
     48c:	4f44      	ldr	r7, [pc, #272]	; (5a0 <TC4_Handler+0x168>)
     48e:	6038      	str	r0, [r7, #0]
	
	
	y = (x) - (1.48*x1) + (0.9891*x2) + (1.373*y1) - (0.8819*y2);			//difference equation
     490:	6838      	ldr	r0, [r7, #0]
     492:	4b44      	ldr	r3, [pc, #272]	; (5a4 <TC4_Handler+0x16c>)
     494:	681b      	ldr	r3, [r3, #0]
     496:	1c1e      	adds	r6, r3, #0
     498:	4a43      	ldr	r2, [pc, #268]	; (5a8 <TC4_Handler+0x170>)
     49a:	4692      	mov	sl, r2
     49c:	6812      	ldr	r2, [r2, #0]
     49e:	9200      	str	r2, [sp, #0]
     4a0:	4942      	ldr	r1, [pc, #264]	; (5ac <TC4_Handler+0x174>)
     4a2:	4688      	mov	r8, r1
     4a4:	6809      	ldr	r1, [r1, #0]
     4a6:	9102      	str	r1, [sp, #8]
     4a8:	4b41      	ldr	r3, [pc, #260]	; (5b0 <TC4_Handler+0x178>)
     4aa:	4699      	mov	r9, r3
     4ac:	681b      	ldr	r3, [r3, #0]
     4ae:	9303      	str	r3, [sp, #12]
     4b0:	47a0      	blx	r4
     4b2:	9004      	str	r0, [sp, #16]
     4b4:	9105      	str	r1, [sp, #20]
     4b6:	1c30      	adds	r0, r6, #0
     4b8:	47a0      	blx	r4
     4ba:	4a3e      	ldr	r2, [pc, #248]	; (5b4 <TC4_Handler+0x17c>)
     4bc:	4b3e      	ldr	r3, [pc, #248]	; (5b8 <TC4_Handler+0x180>)
     4be:	47a8      	blx	r5
     4c0:	0002      	movs	r2, r0
     4c2:	000b      	movs	r3, r1
     4c4:	9804      	ldr	r0, [sp, #16]
     4c6:	9905      	ldr	r1, [sp, #20]
     4c8:	4e3c      	ldr	r6, [pc, #240]	; (5bc <TC4_Handler+0x184>)
     4ca:	47b0      	blx	r6
     4cc:	9004      	str	r0, [sp, #16]
     4ce:	9105      	str	r1, [sp, #20]
     4d0:	9800      	ldr	r0, [sp, #0]
     4d2:	47a0      	blx	r4
     4d4:	4a3a      	ldr	r2, [pc, #232]	; (5c0 <TC4_Handler+0x188>)
     4d6:	4b3b      	ldr	r3, [pc, #236]	; (5c4 <TC4_Handler+0x18c>)
     4d8:	47a8      	blx	r5
     4da:	0002      	movs	r2, r0
     4dc:	000b      	movs	r3, r1
     4de:	9804      	ldr	r0, [sp, #16]
     4e0:	9905      	ldr	r1, [sp, #20]
     4e2:	4e39      	ldr	r6, [pc, #228]	; (5c8 <TC4_Handler+0x190>)
     4e4:	47b0      	blx	r6
     4e6:	9000      	str	r0, [sp, #0]
     4e8:	9101      	str	r1, [sp, #4]
     4ea:	9802      	ldr	r0, [sp, #8]
     4ec:	47a0      	blx	r4
     4ee:	4a37      	ldr	r2, [pc, #220]	; (5cc <TC4_Handler+0x194>)
     4f0:	4b37      	ldr	r3, [pc, #220]	; (5d0 <TC4_Handler+0x198>)
     4f2:	47a8      	blx	r5
     4f4:	0002      	movs	r2, r0
     4f6:	000b      	movs	r3, r1
     4f8:	9800      	ldr	r0, [sp, #0]
     4fa:	9901      	ldr	r1, [sp, #4]
     4fc:	47b0      	blx	r6
     4fe:	9000      	str	r0, [sp, #0]
     500:	9101      	str	r1, [sp, #4]
     502:	9803      	ldr	r0, [sp, #12]
     504:	47a0      	blx	r4
     506:	4a33      	ldr	r2, [pc, #204]	; (5d4 <TC4_Handler+0x19c>)
     508:	4b33      	ldr	r3, [pc, #204]	; (5d8 <TC4_Handler+0x1a0>)
     50a:	47a8      	blx	r5
     50c:	0002      	movs	r2, r0
     50e:	000b      	movs	r3, r1
     510:	9800      	ldr	r0, [sp, #0]
     512:	9901      	ldr	r1, [sp, #4]
     514:	4d29      	ldr	r5, [pc, #164]	; (5bc <TC4_Handler+0x184>)
     516:	47a8      	blx	r5
     518:	47d8      	blx	fp
     51a:	4d30      	ldr	r5, [pc, #192]	; (5dc <TC4_Handler+0x1a4>)
     51c:	6028      	str	r0, [r5, #0]
	
	
	y_int = (1023*y)/3.3;										//convert float y to int for DAC input
     51e:	6828      	ldr	r0, [r5, #0]
     520:	492f      	ldr	r1, [pc, #188]	; (5e0 <TC4_Handler+0x1a8>)
     522:	4b30      	ldr	r3, [pc, #192]	; (5e4 <TC4_Handler+0x1ac>)
     524:	4798      	blx	r3
     526:	47a0      	blx	r4
     528:	4a18      	ldr	r2, [pc, #96]	; (58c <TC4_Handler+0x154>)
     52a:	4b19      	ldr	r3, [pc, #100]	; (590 <TC4_Handler+0x158>)
     52c:	4c1a      	ldr	r4, [pc, #104]	; (598 <TC4_Handler+0x160>)
     52e:	47a0      	blx	r4
     530:	47d8      	blx	fp
     532:	4b2d      	ldr	r3, [pc, #180]	; (5e8 <TC4_Handler+0x1b0>)
     534:	6018      	str	r0, [r3, #0]
	
	
	DAC->DATA.reg = y_int;							//output data to DAC
     536:	6818      	ldr	r0, [r3, #0]
     538:	4b2c      	ldr	r3, [pc, #176]	; (5ec <TC4_Handler+0x1b4>)
     53a:	4798      	blx	r3
     53c:	b280      	uxth	r0, r0
     53e:	4b2c      	ldr	r3, [pc, #176]	; (5f0 <TC4_Handler+0x1b8>)
     540:	8118      	strh	r0, [r3, #8]
				
	y2=y1;
     542:	4643      	mov	r3, r8
     544:	681b      	ldr	r3, [r3, #0]
     546:	464a      	mov	r2, r9
     548:	6013      	str	r3, [r2, #0]
	y1=y; 
     54a:	682b      	ldr	r3, [r5, #0]
     54c:	4642      	mov	r2, r8
     54e:	6013      	str	r3, [r2, #0]
	x2=x1;
     550:	4b14      	ldr	r3, [pc, #80]	; (5a4 <TC4_Handler+0x16c>)
     552:	681b      	ldr	r3, [r3, #0]
     554:	4652      	mov	r2, sl
     556:	6013      	str	r3, [r2, #0]
	x1=x;
     558:	683b      	ldr	r3, [r7, #0]
     55a:	4a12      	ldr	r2, [pc, #72]	; (5a4 <TC4_Handler+0x16c>)
     55c:	6013      	str	r3, [r2, #0]
	
	
	tcc->INTFLAG.bit.OVF = 1;	//clear the interrupt
     55e:	4a25      	ldr	r2, [pc, #148]	; (5f4 <TC4_Handler+0x1bc>)
     560:	7b93      	ldrb	r3, [r2, #14]
     562:	2101      	movs	r1, #1
     564:	430b      	orrs	r3, r1
     566:	7393      	strb	r3, [r2, #14]
	
	//porA->OUTCLR.reg = PORT_PA12;
}
     568:	b007      	add	sp, #28
     56a:	bc3c      	pop	{r2, r3, r4, r5}
     56c:	4690      	mov	r8, r2
     56e:	4699      	mov	r9, r3
     570:	46a2      	mov	sl, r4
     572:	46ab      	mov	fp, r5
     574:	bdf0      	pop	{r4, r5, r6, r7, pc}
     576:	46c0      	nop			; (mov r8, r8)
     578:	42004000 	.word	0x42004000
     57c:	00000cf9 	.word	0x00000cf9
     580:	20000028 	.word	0x20000028
     584:	00002539 	.word	0x00002539
     588:	00001a0d 	.word	0x00001a0d
     58c:	66666666 	.word	0x66666666
     590:	400a6666 	.word	0x400a6666
     594:	40affe00 	.word	0x40affe00
     598:	000013a5 	.word	0x000013a5
     59c:	000025dd 	.word	0x000025dd
     5a0:	2000001c 	.word	0x2000001c
     5a4:	20000020 	.word	0x20000020
     5a8:	20000024 	.word	0x20000024
     5ac:	20000030 	.word	0x20000030
     5b0:	20000034 	.word	0x20000034
     5b4:	7ae147ae 	.word	0x7ae147ae
     5b8:	3ff7ae14 	.word	0x3ff7ae14
     5bc:	00001f0d 	.word	0x00001f0d
     5c0:	0b0f27bb 	.word	0x0b0f27bb
     5c4:	3fefa6b5 	.word	0x3fefa6b5
     5c8:	00000d85 	.word	0x00000d85
     5cc:	d916872b 	.word	0xd916872b
     5d0:	3ff5f7ce 	.word	0x3ff5f7ce
     5d4:	594af4f1 	.word	0x594af4f1
     5d8:	3fec3886 	.word	0x3fec3886
     5dc:	2000002c 	.word	0x2000002c
     5e0:	447fc000 	.word	0x447fc000
     5e4:	00000741 	.word	0x00000741
     5e8:	20000038 	.word	0x20000038
     5ec:	00000711 	.word	0x00000711
     5f0:	42004800 	.word	0x42004800
     5f4:	42003000 	.word	0x42003000

000005f8 <__udivsi3>:
     5f8:	2200      	movs	r2, #0
     5fa:	0843      	lsrs	r3, r0, #1
     5fc:	428b      	cmp	r3, r1
     5fe:	d374      	bcc.n	6ea <__udivsi3+0xf2>
     600:	0903      	lsrs	r3, r0, #4
     602:	428b      	cmp	r3, r1
     604:	d35f      	bcc.n	6c6 <__udivsi3+0xce>
     606:	0a03      	lsrs	r3, r0, #8
     608:	428b      	cmp	r3, r1
     60a:	d344      	bcc.n	696 <__udivsi3+0x9e>
     60c:	0b03      	lsrs	r3, r0, #12
     60e:	428b      	cmp	r3, r1
     610:	d328      	bcc.n	664 <__udivsi3+0x6c>
     612:	0c03      	lsrs	r3, r0, #16
     614:	428b      	cmp	r3, r1
     616:	d30d      	bcc.n	634 <__udivsi3+0x3c>
     618:	22ff      	movs	r2, #255	; 0xff
     61a:	0209      	lsls	r1, r1, #8
     61c:	ba12      	rev	r2, r2
     61e:	0c03      	lsrs	r3, r0, #16
     620:	428b      	cmp	r3, r1
     622:	d302      	bcc.n	62a <__udivsi3+0x32>
     624:	1212      	asrs	r2, r2, #8
     626:	0209      	lsls	r1, r1, #8
     628:	d065      	beq.n	6f6 <__udivsi3+0xfe>
     62a:	0b03      	lsrs	r3, r0, #12
     62c:	428b      	cmp	r3, r1
     62e:	d319      	bcc.n	664 <__udivsi3+0x6c>
     630:	e000      	b.n	634 <__udivsi3+0x3c>
     632:	0a09      	lsrs	r1, r1, #8
     634:	0bc3      	lsrs	r3, r0, #15
     636:	428b      	cmp	r3, r1
     638:	d301      	bcc.n	63e <__udivsi3+0x46>
     63a:	03cb      	lsls	r3, r1, #15
     63c:	1ac0      	subs	r0, r0, r3
     63e:	4152      	adcs	r2, r2
     640:	0b83      	lsrs	r3, r0, #14
     642:	428b      	cmp	r3, r1
     644:	d301      	bcc.n	64a <__udivsi3+0x52>
     646:	038b      	lsls	r3, r1, #14
     648:	1ac0      	subs	r0, r0, r3
     64a:	4152      	adcs	r2, r2
     64c:	0b43      	lsrs	r3, r0, #13
     64e:	428b      	cmp	r3, r1
     650:	d301      	bcc.n	656 <__udivsi3+0x5e>
     652:	034b      	lsls	r3, r1, #13
     654:	1ac0      	subs	r0, r0, r3
     656:	4152      	adcs	r2, r2
     658:	0b03      	lsrs	r3, r0, #12
     65a:	428b      	cmp	r3, r1
     65c:	d301      	bcc.n	662 <__udivsi3+0x6a>
     65e:	030b      	lsls	r3, r1, #12
     660:	1ac0      	subs	r0, r0, r3
     662:	4152      	adcs	r2, r2
     664:	0ac3      	lsrs	r3, r0, #11
     666:	428b      	cmp	r3, r1
     668:	d301      	bcc.n	66e <__udivsi3+0x76>
     66a:	02cb      	lsls	r3, r1, #11
     66c:	1ac0      	subs	r0, r0, r3
     66e:	4152      	adcs	r2, r2
     670:	0a83      	lsrs	r3, r0, #10
     672:	428b      	cmp	r3, r1
     674:	d301      	bcc.n	67a <__udivsi3+0x82>
     676:	028b      	lsls	r3, r1, #10
     678:	1ac0      	subs	r0, r0, r3
     67a:	4152      	adcs	r2, r2
     67c:	0a43      	lsrs	r3, r0, #9
     67e:	428b      	cmp	r3, r1
     680:	d301      	bcc.n	686 <__udivsi3+0x8e>
     682:	024b      	lsls	r3, r1, #9
     684:	1ac0      	subs	r0, r0, r3
     686:	4152      	adcs	r2, r2
     688:	0a03      	lsrs	r3, r0, #8
     68a:	428b      	cmp	r3, r1
     68c:	d301      	bcc.n	692 <__udivsi3+0x9a>
     68e:	020b      	lsls	r3, r1, #8
     690:	1ac0      	subs	r0, r0, r3
     692:	4152      	adcs	r2, r2
     694:	d2cd      	bcs.n	632 <__udivsi3+0x3a>
     696:	09c3      	lsrs	r3, r0, #7
     698:	428b      	cmp	r3, r1
     69a:	d301      	bcc.n	6a0 <__udivsi3+0xa8>
     69c:	01cb      	lsls	r3, r1, #7
     69e:	1ac0      	subs	r0, r0, r3
     6a0:	4152      	adcs	r2, r2
     6a2:	0983      	lsrs	r3, r0, #6
     6a4:	428b      	cmp	r3, r1
     6a6:	d301      	bcc.n	6ac <__udivsi3+0xb4>
     6a8:	018b      	lsls	r3, r1, #6
     6aa:	1ac0      	subs	r0, r0, r3
     6ac:	4152      	adcs	r2, r2
     6ae:	0943      	lsrs	r3, r0, #5
     6b0:	428b      	cmp	r3, r1
     6b2:	d301      	bcc.n	6b8 <__udivsi3+0xc0>
     6b4:	014b      	lsls	r3, r1, #5
     6b6:	1ac0      	subs	r0, r0, r3
     6b8:	4152      	adcs	r2, r2
     6ba:	0903      	lsrs	r3, r0, #4
     6bc:	428b      	cmp	r3, r1
     6be:	d301      	bcc.n	6c4 <__udivsi3+0xcc>
     6c0:	010b      	lsls	r3, r1, #4
     6c2:	1ac0      	subs	r0, r0, r3
     6c4:	4152      	adcs	r2, r2
     6c6:	08c3      	lsrs	r3, r0, #3
     6c8:	428b      	cmp	r3, r1
     6ca:	d301      	bcc.n	6d0 <__udivsi3+0xd8>
     6cc:	00cb      	lsls	r3, r1, #3
     6ce:	1ac0      	subs	r0, r0, r3
     6d0:	4152      	adcs	r2, r2
     6d2:	0883      	lsrs	r3, r0, #2
     6d4:	428b      	cmp	r3, r1
     6d6:	d301      	bcc.n	6dc <__udivsi3+0xe4>
     6d8:	008b      	lsls	r3, r1, #2
     6da:	1ac0      	subs	r0, r0, r3
     6dc:	4152      	adcs	r2, r2
     6de:	0843      	lsrs	r3, r0, #1
     6e0:	428b      	cmp	r3, r1
     6e2:	d301      	bcc.n	6e8 <__udivsi3+0xf0>
     6e4:	004b      	lsls	r3, r1, #1
     6e6:	1ac0      	subs	r0, r0, r3
     6e8:	4152      	adcs	r2, r2
     6ea:	1a41      	subs	r1, r0, r1
     6ec:	d200      	bcs.n	6f0 <__udivsi3+0xf8>
     6ee:	4601      	mov	r1, r0
     6f0:	4152      	adcs	r2, r2
     6f2:	4610      	mov	r0, r2
     6f4:	4770      	bx	lr
     6f6:	e7ff      	b.n	6f8 <__udivsi3+0x100>
     6f8:	b501      	push	{r0, lr}
     6fa:	2000      	movs	r0, #0
     6fc:	f000 f806 	bl	70c <__aeabi_idiv0>
     700:	bd02      	pop	{r1, pc}
     702:	46c0      	nop			; (mov r8, r8)

00000704 <__aeabi_uidivmod>:
     704:	2900      	cmp	r1, #0
     706:	d0f7      	beq.n	6f8 <__udivsi3+0x100>
     708:	e776      	b.n	5f8 <__udivsi3>
     70a:	4770      	bx	lr

0000070c <__aeabi_idiv0>:
     70c:	4770      	bx	lr
     70e:	46c0      	nop			; (mov r8, r8)

00000710 <__aeabi_f2uiz>:
     710:	219e      	movs	r1, #158	; 0x9e
     712:	b510      	push	{r4, lr}
     714:	05c9      	lsls	r1, r1, #23
     716:	1c04      	adds	r4, r0, #0
     718:	f002 f81a 	bl	2750 <__aeabi_fcmpge>
     71c:	2800      	cmp	r0, #0
     71e:	d103      	bne.n	728 <__aeabi_f2uiz+0x18>
     720:	1c20      	adds	r0, r4, #0
     722:	f000 fac9 	bl	cb8 <__aeabi_f2iz>
     726:	bd10      	pop	{r4, pc}
     728:	219e      	movs	r1, #158	; 0x9e
     72a:	1c20      	adds	r0, r4, #0
     72c:	05c9      	lsls	r1, r1, #23
     72e:	f000 f927 	bl	980 <__aeabi_fsub>
     732:	f000 fac1 	bl	cb8 <__aeabi_f2iz>
     736:	2380      	movs	r3, #128	; 0x80
     738:	061b      	lsls	r3, r3, #24
     73a:	469c      	mov	ip, r3
     73c:	4460      	add	r0, ip
     73e:	e7f2      	b.n	726 <__aeabi_f2uiz+0x16>

00000740 <__aeabi_fmul>:
     740:	b5f8      	push	{r3, r4, r5, r6, r7, lr}
     742:	4657      	mov	r7, sl
     744:	464e      	mov	r6, r9
     746:	4645      	mov	r5, r8
     748:	46de      	mov	lr, fp
     74a:	b5e0      	push	{r5, r6, r7, lr}
     74c:	0247      	lsls	r7, r0, #9
     74e:	0046      	lsls	r6, r0, #1
     750:	4688      	mov	r8, r1
     752:	0a7f      	lsrs	r7, r7, #9
     754:	0e36      	lsrs	r6, r6, #24
     756:	0fc4      	lsrs	r4, r0, #31
     758:	2e00      	cmp	r6, #0
     75a:	d047      	beq.n	7ec <__aeabi_fmul+0xac>
     75c:	2eff      	cmp	r6, #255	; 0xff
     75e:	d024      	beq.n	7aa <__aeabi_fmul+0x6a>
     760:	00fb      	lsls	r3, r7, #3
     762:	2780      	movs	r7, #128	; 0x80
     764:	04ff      	lsls	r7, r7, #19
     766:	431f      	orrs	r7, r3
     768:	2300      	movs	r3, #0
     76a:	4699      	mov	r9, r3
     76c:	469a      	mov	sl, r3
     76e:	3e7f      	subs	r6, #127	; 0x7f
     770:	4643      	mov	r3, r8
     772:	025d      	lsls	r5, r3, #9
     774:	0058      	lsls	r0, r3, #1
     776:	0fdb      	lsrs	r3, r3, #31
     778:	0a6d      	lsrs	r5, r5, #9
     77a:	0e00      	lsrs	r0, r0, #24
     77c:	4698      	mov	r8, r3
     77e:	d043      	beq.n	808 <__aeabi_fmul+0xc8>
     780:	28ff      	cmp	r0, #255	; 0xff
     782:	d03b      	beq.n	7fc <__aeabi_fmul+0xbc>
     784:	00eb      	lsls	r3, r5, #3
     786:	2580      	movs	r5, #128	; 0x80
     788:	2200      	movs	r2, #0
     78a:	04ed      	lsls	r5, r5, #19
     78c:	431d      	orrs	r5, r3
     78e:	387f      	subs	r0, #127	; 0x7f
     790:	1836      	adds	r6, r6, r0
     792:	1c73      	adds	r3, r6, #1
     794:	4641      	mov	r1, r8
     796:	469b      	mov	fp, r3
     798:	464b      	mov	r3, r9
     79a:	4061      	eors	r1, r4
     79c:	4313      	orrs	r3, r2
     79e:	2b0f      	cmp	r3, #15
     7a0:	d864      	bhi.n	86c <__aeabi_fmul+0x12c>
     7a2:	4875      	ldr	r0, [pc, #468]	; (978 <__aeabi_fmul+0x238>)
     7a4:	009b      	lsls	r3, r3, #2
     7a6:	58c3      	ldr	r3, [r0, r3]
     7a8:	469f      	mov	pc, r3
     7aa:	2f00      	cmp	r7, #0
     7ac:	d142      	bne.n	834 <__aeabi_fmul+0xf4>
     7ae:	2308      	movs	r3, #8
     7b0:	4699      	mov	r9, r3
     7b2:	3b06      	subs	r3, #6
     7b4:	26ff      	movs	r6, #255	; 0xff
     7b6:	469a      	mov	sl, r3
     7b8:	e7da      	b.n	770 <__aeabi_fmul+0x30>
     7ba:	4641      	mov	r1, r8
     7bc:	2a02      	cmp	r2, #2
     7be:	d028      	beq.n	812 <__aeabi_fmul+0xd2>
     7c0:	2a03      	cmp	r2, #3
     7c2:	d100      	bne.n	7c6 <__aeabi_fmul+0x86>
     7c4:	e0ce      	b.n	964 <__aeabi_fmul+0x224>
     7c6:	2a01      	cmp	r2, #1
     7c8:	d000      	beq.n	7cc <__aeabi_fmul+0x8c>
     7ca:	e0ac      	b.n	926 <__aeabi_fmul+0x1e6>
     7cc:	4011      	ands	r1, r2
     7ce:	2000      	movs	r0, #0
     7d0:	2200      	movs	r2, #0
     7d2:	b2cc      	uxtb	r4, r1
     7d4:	0240      	lsls	r0, r0, #9
     7d6:	05d2      	lsls	r2, r2, #23
     7d8:	0a40      	lsrs	r0, r0, #9
     7da:	07e4      	lsls	r4, r4, #31
     7dc:	4310      	orrs	r0, r2
     7de:	4320      	orrs	r0, r4
     7e0:	bc3c      	pop	{r2, r3, r4, r5}
     7e2:	4690      	mov	r8, r2
     7e4:	4699      	mov	r9, r3
     7e6:	46a2      	mov	sl, r4
     7e8:	46ab      	mov	fp, r5
     7ea:	bdf8      	pop	{r3, r4, r5, r6, r7, pc}
     7ec:	2f00      	cmp	r7, #0
     7ee:	d115      	bne.n	81c <__aeabi_fmul+0xdc>
     7f0:	2304      	movs	r3, #4
     7f2:	4699      	mov	r9, r3
     7f4:	3b03      	subs	r3, #3
     7f6:	2600      	movs	r6, #0
     7f8:	469a      	mov	sl, r3
     7fa:	e7b9      	b.n	770 <__aeabi_fmul+0x30>
     7fc:	20ff      	movs	r0, #255	; 0xff
     7fe:	2202      	movs	r2, #2
     800:	2d00      	cmp	r5, #0
     802:	d0c5      	beq.n	790 <__aeabi_fmul+0x50>
     804:	2203      	movs	r2, #3
     806:	e7c3      	b.n	790 <__aeabi_fmul+0x50>
     808:	2d00      	cmp	r5, #0
     80a:	d119      	bne.n	840 <__aeabi_fmul+0x100>
     80c:	2000      	movs	r0, #0
     80e:	2201      	movs	r2, #1
     810:	e7be      	b.n	790 <__aeabi_fmul+0x50>
     812:	2401      	movs	r4, #1
     814:	22ff      	movs	r2, #255	; 0xff
     816:	400c      	ands	r4, r1
     818:	2000      	movs	r0, #0
     81a:	e7db      	b.n	7d4 <__aeabi_fmul+0x94>
     81c:	0038      	movs	r0, r7
     81e:	f001 ffa1 	bl	2764 <__clzsi2>
     822:	2676      	movs	r6, #118	; 0x76
     824:	1f43      	subs	r3, r0, #5
     826:	409f      	lsls	r7, r3
     828:	2300      	movs	r3, #0
     82a:	4276      	negs	r6, r6
     82c:	1a36      	subs	r6, r6, r0
     82e:	4699      	mov	r9, r3
     830:	469a      	mov	sl, r3
     832:	e79d      	b.n	770 <__aeabi_fmul+0x30>
     834:	230c      	movs	r3, #12
     836:	4699      	mov	r9, r3
     838:	3b09      	subs	r3, #9
     83a:	26ff      	movs	r6, #255	; 0xff
     83c:	469a      	mov	sl, r3
     83e:	e797      	b.n	770 <__aeabi_fmul+0x30>
     840:	0028      	movs	r0, r5
     842:	f001 ff8f 	bl	2764 <__clzsi2>
     846:	1f43      	subs	r3, r0, #5
     848:	409d      	lsls	r5, r3
     84a:	2376      	movs	r3, #118	; 0x76
     84c:	425b      	negs	r3, r3
     84e:	1a18      	subs	r0, r3, r0
     850:	2200      	movs	r2, #0
     852:	e79d      	b.n	790 <__aeabi_fmul+0x50>
     854:	2080      	movs	r0, #128	; 0x80
     856:	2400      	movs	r4, #0
     858:	03c0      	lsls	r0, r0, #15
     85a:	22ff      	movs	r2, #255	; 0xff
     85c:	e7ba      	b.n	7d4 <__aeabi_fmul+0x94>
     85e:	003d      	movs	r5, r7
     860:	4652      	mov	r2, sl
     862:	e7ab      	b.n	7bc <__aeabi_fmul+0x7c>
     864:	003d      	movs	r5, r7
     866:	0021      	movs	r1, r4
     868:	4652      	mov	r2, sl
     86a:	e7a7      	b.n	7bc <__aeabi_fmul+0x7c>
     86c:	0c3b      	lsrs	r3, r7, #16
     86e:	469c      	mov	ip, r3
     870:	042a      	lsls	r2, r5, #16
     872:	0c12      	lsrs	r2, r2, #16
     874:	0c2b      	lsrs	r3, r5, #16
     876:	0014      	movs	r4, r2
     878:	4660      	mov	r0, ip
     87a:	4665      	mov	r5, ip
     87c:	043f      	lsls	r7, r7, #16
     87e:	0c3f      	lsrs	r7, r7, #16
     880:	437c      	muls	r4, r7
     882:	4342      	muls	r2, r0
     884:	435d      	muls	r5, r3
     886:	437b      	muls	r3, r7
     888:	0c27      	lsrs	r7, r4, #16
     88a:	189b      	adds	r3, r3, r2
     88c:	18ff      	adds	r7, r7, r3
     88e:	42ba      	cmp	r2, r7
     890:	d903      	bls.n	89a <__aeabi_fmul+0x15a>
     892:	2380      	movs	r3, #128	; 0x80
     894:	025b      	lsls	r3, r3, #9
     896:	469c      	mov	ip, r3
     898:	4465      	add	r5, ip
     89a:	0424      	lsls	r4, r4, #16
     89c:	043a      	lsls	r2, r7, #16
     89e:	0c24      	lsrs	r4, r4, #16
     8a0:	1912      	adds	r2, r2, r4
     8a2:	0193      	lsls	r3, r2, #6
     8a4:	1e5c      	subs	r4, r3, #1
     8a6:	41a3      	sbcs	r3, r4
     8a8:	0c3f      	lsrs	r7, r7, #16
     8aa:	0e92      	lsrs	r2, r2, #26
     8ac:	197d      	adds	r5, r7, r5
     8ae:	431a      	orrs	r2, r3
     8b0:	01ad      	lsls	r5, r5, #6
     8b2:	4315      	orrs	r5, r2
     8b4:	012b      	lsls	r3, r5, #4
     8b6:	d504      	bpl.n	8c2 <__aeabi_fmul+0x182>
     8b8:	2301      	movs	r3, #1
     8ba:	465e      	mov	r6, fp
     8bc:	086a      	lsrs	r2, r5, #1
     8be:	401d      	ands	r5, r3
     8c0:	4315      	orrs	r5, r2
     8c2:	0032      	movs	r2, r6
     8c4:	327f      	adds	r2, #127	; 0x7f
     8c6:	2a00      	cmp	r2, #0
     8c8:	dd25      	ble.n	916 <__aeabi_fmul+0x1d6>
     8ca:	076b      	lsls	r3, r5, #29
     8cc:	d004      	beq.n	8d8 <__aeabi_fmul+0x198>
     8ce:	230f      	movs	r3, #15
     8d0:	402b      	ands	r3, r5
     8d2:	2b04      	cmp	r3, #4
     8d4:	d000      	beq.n	8d8 <__aeabi_fmul+0x198>
     8d6:	3504      	adds	r5, #4
     8d8:	012b      	lsls	r3, r5, #4
     8da:	d503      	bpl.n	8e4 <__aeabi_fmul+0x1a4>
     8dc:	0032      	movs	r2, r6
     8de:	4b27      	ldr	r3, [pc, #156]	; (97c <__aeabi_fmul+0x23c>)
     8e0:	3280      	adds	r2, #128	; 0x80
     8e2:	401d      	ands	r5, r3
     8e4:	2afe      	cmp	r2, #254	; 0xfe
     8e6:	dc94      	bgt.n	812 <__aeabi_fmul+0xd2>
     8e8:	2401      	movs	r4, #1
     8ea:	01a8      	lsls	r0, r5, #6
     8ec:	0a40      	lsrs	r0, r0, #9
     8ee:	b2d2      	uxtb	r2, r2
     8f0:	400c      	ands	r4, r1
     8f2:	e76f      	b.n	7d4 <__aeabi_fmul+0x94>
     8f4:	2080      	movs	r0, #128	; 0x80
     8f6:	03c0      	lsls	r0, r0, #15
     8f8:	4207      	tst	r7, r0
     8fa:	d007      	beq.n	90c <__aeabi_fmul+0x1cc>
     8fc:	4205      	tst	r5, r0
     8fe:	d105      	bne.n	90c <__aeabi_fmul+0x1cc>
     900:	4328      	orrs	r0, r5
     902:	0240      	lsls	r0, r0, #9
     904:	0a40      	lsrs	r0, r0, #9
     906:	4644      	mov	r4, r8
     908:	22ff      	movs	r2, #255	; 0xff
     90a:	e763      	b.n	7d4 <__aeabi_fmul+0x94>
     90c:	4338      	orrs	r0, r7
     90e:	0240      	lsls	r0, r0, #9
     910:	0a40      	lsrs	r0, r0, #9
     912:	22ff      	movs	r2, #255	; 0xff
     914:	e75e      	b.n	7d4 <__aeabi_fmul+0x94>
     916:	2401      	movs	r4, #1
     918:	1aa3      	subs	r3, r4, r2
     91a:	2b1b      	cmp	r3, #27
     91c:	dd05      	ble.n	92a <__aeabi_fmul+0x1ea>
     91e:	400c      	ands	r4, r1
     920:	2200      	movs	r2, #0
     922:	2000      	movs	r0, #0
     924:	e756      	b.n	7d4 <__aeabi_fmul+0x94>
     926:	465e      	mov	r6, fp
     928:	e7cb      	b.n	8c2 <__aeabi_fmul+0x182>
     92a:	002a      	movs	r2, r5
     92c:	2020      	movs	r0, #32
     92e:	40da      	lsrs	r2, r3
     930:	1ac3      	subs	r3, r0, r3
     932:	409d      	lsls	r5, r3
     934:	002b      	movs	r3, r5
     936:	1e5d      	subs	r5, r3, #1
     938:	41ab      	sbcs	r3, r5
     93a:	4313      	orrs	r3, r2
     93c:	075a      	lsls	r2, r3, #29
     93e:	d004      	beq.n	94a <__aeabi_fmul+0x20a>
     940:	220f      	movs	r2, #15
     942:	401a      	ands	r2, r3
     944:	2a04      	cmp	r2, #4
     946:	d000      	beq.n	94a <__aeabi_fmul+0x20a>
     948:	3304      	adds	r3, #4
     94a:	015a      	lsls	r2, r3, #5
     94c:	d504      	bpl.n	958 <__aeabi_fmul+0x218>
     94e:	2401      	movs	r4, #1
     950:	2201      	movs	r2, #1
     952:	400c      	ands	r4, r1
     954:	2000      	movs	r0, #0
     956:	e73d      	b.n	7d4 <__aeabi_fmul+0x94>
     958:	2401      	movs	r4, #1
     95a:	019b      	lsls	r3, r3, #6
     95c:	0a58      	lsrs	r0, r3, #9
     95e:	400c      	ands	r4, r1
     960:	2200      	movs	r2, #0
     962:	e737      	b.n	7d4 <__aeabi_fmul+0x94>
     964:	2080      	movs	r0, #128	; 0x80
     966:	2401      	movs	r4, #1
     968:	03c0      	lsls	r0, r0, #15
     96a:	4328      	orrs	r0, r5
     96c:	0240      	lsls	r0, r0, #9
     96e:	0a40      	lsrs	r0, r0, #9
     970:	400c      	ands	r4, r1
     972:	22ff      	movs	r2, #255	; 0xff
     974:	e72e      	b.n	7d4 <__aeabi_fmul+0x94>
     976:	46c0      	nop			; (mov r8, r8)
     978:	00002938 	.word	0x00002938
     97c:	f7ffffff 	.word	0xf7ffffff

00000980 <__aeabi_fsub>:
     980:	b5f0      	push	{r4, r5, r6, r7, lr}
     982:	464f      	mov	r7, r9
     984:	46d6      	mov	lr, sl
     986:	4646      	mov	r6, r8
     988:	0044      	lsls	r4, r0, #1
     98a:	b5c0      	push	{r6, r7, lr}
     98c:	0fc2      	lsrs	r2, r0, #31
     98e:	0247      	lsls	r7, r0, #9
     990:	0248      	lsls	r0, r1, #9
     992:	0a40      	lsrs	r0, r0, #9
     994:	4684      	mov	ip, r0
     996:	4666      	mov	r6, ip
     998:	0a7b      	lsrs	r3, r7, #9
     99a:	0048      	lsls	r0, r1, #1
     99c:	0fc9      	lsrs	r1, r1, #31
     99e:	469a      	mov	sl, r3
     9a0:	0e24      	lsrs	r4, r4, #24
     9a2:	0015      	movs	r5, r2
     9a4:	00db      	lsls	r3, r3, #3
     9a6:	0e00      	lsrs	r0, r0, #24
     9a8:	4689      	mov	r9, r1
     9aa:	00f6      	lsls	r6, r6, #3
     9ac:	28ff      	cmp	r0, #255	; 0xff
     9ae:	d100      	bne.n	9b2 <__aeabi_fsub+0x32>
     9b0:	e08f      	b.n	ad2 <__aeabi_fsub+0x152>
     9b2:	2101      	movs	r1, #1
     9b4:	464f      	mov	r7, r9
     9b6:	404f      	eors	r7, r1
     9b8:	0039      	movs	r1, r7
     9ba:	4291      	cmp	r1, r2
     9bc:	d066      	beq.n	a8c <__aeabi_fsub+0x10c>
     9be:	1a22      	subs	r2, r4, r0
     9c0:	2a00      	cmp	r2, #0
     9c2:	dc00      	bgt.n	9c6 <__aeabi_fsub+0x46>
     9c4:	e09d      	b.n	b02 <__aeabi_fsub+0x182>
     9c6:	2800      	cmp	r0, #0
     9c8:	d13d      	bne.n	a46 <__aeabi_fsub+0xc6>
     9ca:	2e00      	cmp	r6, #0
     9cc:	d100      	bne.n	9d0 <__aeabi_fsub+0x50>
     9ce:	e08b      	b.n	ae8 <__aeabi_fsub+0x168>
     9d0:	1e51      	subs	r1, r2, #1
     9d2:	2900      	cmp	r1, #0
     9d4:	d000      	beq.n	9d8 <__aeabi_fsub+0x58>
     9d6:	e0b5      	b.n	b44 <__aeabi_fsub+0x1c4>
     9d8:	2401      	movs	r4, #1
     9da:	1b9b      	subs	r3, r3, r6
     9dc:	015a      	lsls	r2, r3, #5
     9de:	d544      	bpl.n	a6a <__aeabi_fsub+0xea>
     9e0:	019b      	lsls	r3, r3, #6
     9e2:	099f      	lsrs	r7, r3, #6
     9e4:	0038      	movs	r0, r7
     9e6:	f001 febd 	bl	2764 <__clzsi2>
     9ea:	3805      	subs	r0, #5
     9ec:	4087      	lsls	r7, r0
     9ee:	4284      	cmp	r4, r0
     9f0:	dd00      	ble.n	9f4 <__aeabi_fsub+0x74>
     9f2:	e096      	b.n	b22 <__aeabi_fsub+0x1a2>
     9f4:	1b04      	subs	r4, r0, r4
     9f6:	003a      	movs	r2, r7
     9f8:	2020      	movs	r0, #32
     9fa:	3401      	adds	r4, #1
     9fc:	40e2      	lsrs	r2, r4
     9fe:	1b04      	subs	r4, r0, r4
     a00:	40a7      	lsls	r7, r4
     a02:	003b      	movs	r3, r7
     a04:	1e5f      	subs	r7, r3, #1
     a06:	41bb      	sbcs	r3, r7
     a08:	2400      	movs	r4, #0
     a0a:	4313      	orrs	r3, r2
     a0c:	075a      	lsls	r2, r3, #29
     a0e:	d004      	beq.n	a1a <__aeabi_fsub+0x9a>
     a10:	220f      	movs	r2, #15
     a12:	401a      	ands	r2, r3
     a14:	2a04      	cmp	r2, #4
     a16:	d000      	beq.n	a1a <__aeabi_fsub+0x9a>
     a18:	3304      	adds	r3, #4
     a1a:	015a      	lsls	r2, r3, #5
     a1c:	d527      	bpl.n	a6e <__aeabi_fsub+0xee>
     a1e:	3401      	adds	r4, #1
     a20:	2cff      	cmp	r4, #255	; 0xff
     a22:	d100      	bne.n	a26 <__aeabi_fsub+0xa6>
     a24:	e079      	b.n	b1a <__aeabi_fsub+0x19a>
     a26:	2201      	movs	r2, #1
     a28:	019b      	lsls	r3, r3, #6
     a2a:	0a5b      	lsrs	r3, r3, #9
     a2c:	b2e4      	uxtb	r4, r4
     a2e:	402a      	ands	r2, r5
     a30:	025b      	lsls	r3, r3, #9
     a32:	05e4      	lsls	r4, r4, #23
     a34:	0a58      	lsrs	r0, r3, #9
     a36:	07d2      	lsls	r2, r2, #31
     a38:	4320      	orrs	r0, r4
     a3a:	4310      	orrs	r0, r2
     a3c:	bc1c      	pop	{r2, r3, r4}
     a3e:	4690      	mov	r8, r2
     a40:	4699      	mov	r9, r3
     a42:	46a2      	mov	sl, r4
     a44:	bdf0      	pop	{r4, r5, r6, r7, pc}
     a46:	2cff      	cmp	r4, #255	; 0xff
     a48:	d0e0      	beq.n	a0c <__aeabi_fsub+0x8c>
     a4a:	2180      	movs	r1, #128	; 0x80
     a4c:	04c9      	lsls	r1, r1, #19
     a4e:	430e      	orrs	r6, r1
     a50:	2a1b      	cmp	r2, #27
     a52:	dc7b      	bgt.n	b4c <__aeabi_fsub+0x1cc>
     a54:	0031      	movs	r1, r6
     a56:	2020      	movs	r0, #32
     a58:	40d1      	lsrs	r1, r2
     a5a:	1a82      	subs	r2, r0, r2
     a5c:	4096      	lsls	r6, r2
     a5e:	1e72      	subs	r2, r6, #1
     a60:	4196      	sbcs	r6, r2
     a62:	430e      	orrs	r6, r1
     a64:	1b9b      	subs	r3, r3, r6
     a66:	015a      	lsls	r2, r3, #5
     a68:	d4ba      	bmi.n	9e0 <__aeabi_fsub+0x60>
     a6a:	075a      	lsls	r2, r3, #29
     a6c:	d1d0      	bne.n	a10 <__aeabi_fsub+0x90>
     a6e:	2201      	movs	r2, #1
     a70:	08df      	lsrs	r7, r3, #3
     a72:	402a      	ands	r2, r5
     a74:	2cff      	cmp	r4, #255	; 0xff
     a76:	d133      	bne.n	ae0 <__aeabi_fsub+0x160>
     a78:	2f00      	cmp	r7, #0
     a7a:	d100      	bne.n	a7e <__aeabi_fsub+0xfe>
     a7c:	e0a8      	b.n	bd0 <__aeabi_fsub+0x250>
     a7e:	2380      	movs	r3, #128	; 0x80
     a80:	03db      	lsls	r3, r3, #15
     a82:	433b      	orrs	r3, r7
     a84:	025b      	lsls	r3, r3, #9
     a86:	0a5b      	lsrs	r3, r3, #9
     a88:	24ff      	movs	r4, #255	; 0xff
     a8a:	e7d1      	b.n	a30 <__aeabi_fsub+0xb0>
     a8c:	1a21      	subs	r1, r4, r0
     a8e:	2900      	cmp	r1, #0
     a90:	dd4c      	ble.n	b2c <__aeabi_fsub+0x1ac>
     a92:	2800      	cmp	r0, #0
     a94:	d02a      	beq.n	aec <__aeabi_fsub+0x16c>
     a96:	2cff      	cmp	r4, #255	; 0xff
     a98:	d0b8      	beq.n	a0c <__aeabi_fsub+0x8c>
     a9a:	2080      	movs	r0, #128	; 0x80
     a9c:	04c0      	lsls	r0, r0, #19
     a9e:	4306      	orrs	r6, r0
     aa0:	291b      	cmp	r1, #27
     aa2:	dd00      	ble.n	aa6 <__aeabi_fsub+0x126>
     aa4:	e0af      	b.n	c06 <__aeabi_fsub+0x286>
     aa6:	0030      	movs	r0, r6
     aa8:	2720      	movs	r7, #32
     aaa:	40c8      	lsrs	r0, r1
     aac:	1a79      	subs	r1, r7, r1
     aae:	408e      	lsls	r6, r1
     ab0:	1e71      	subs	r1, r6, #1
     ab2:	418e      	sbcs	r6, r1
     ab4:	4306      	orrs	r6, r0
     ab6:	199b      	adds	r3, r3, r6
     ab8:	0159      	lsls	r1, r3, #5
     aba:	d5d6      	bpl.n	a6a <__aeabi_fsub+0xea>
     abc:	3401      	adds	r4, #1
     abe:	2cff      	cmp	r4, #255	; 0xff
     ac0:	d100      	bne.n	ac4 <__aeabi_fsub+0x144>
     ac2:	e085      	b.n	bd0 <__aeabi_fsub+0x250>
     ac4:	2201      	movs	r2, #1
     ac6:	497a      	ldr	r1, [pc, #488]	; (cb0 <__aeabi_fsub+0x330>)
     ac8:	401a      	ands	r2, r3
     aca:	085b      	lsrs	r3, r3, #1
     acc:	400b      	ands	r3, r1
     ace:	4313      	orrs	r3, r2
     ad0:	e79c      	b.n	a0c <__aeabi_fsub+0x8c>
     ad2:	2e00      	cmp	r6, #0
     ad4:	d000      	beq.n	ad8 <__aeabi_fsub+0x158>
     ad6:	e770      	b.n	9ba <__aeabi_fsub+0x3a>
     ad8:	e76b      	b.n	9b2 <__aeabi_fsub+0x32>
     ada:	1e3b      	subs	r3, r7, #0
     adc:	d1c5      	bne.n	a6a <__aeabi_fsub+0xea>
     ade:	2200      	movs	r2, #0
     ae0:	027b      	lsls	r3, r7, #9
     ae2:	0a5b      	lsrs	r3, r3, #9
     ae4:	b2e4      	uxtb	r4, r4
     ae6:	e7a3      	b.n	a30 <__aeabi_fsub+0xb0>
     ae8:	0014      	movs	r4, r2
     aea:	e78f      	b.n	a0c <__aeabi_fsub+0x8c>
     aec:	2e00      	cmp	r6, #0
     aee:	d04d      	beq.n	b8c <__aeabi_fsub+0x20c>
     af0:	1e48      	subs	r0, r1, #1
     af2:	2800      	cmp	r0, #0
     af4:	d157      	bne.n	ba6 <__aeabi_fsub+0x226>
     af6:	199b      	adds	r3, r3, r6
     af8:	2401      	movs	r4, #1
     afa:	015a      	lsls	r2, r3, #5
     afc:	d5b5      	bpl.n	a6a <__aeabi_fsub+0xea>
     afe:	2402      	movs	r4, #2
     b00:	e7e0      	b.n	ac4 <__aeabi_fsub+0x144>
     b02:	2a00      	cmp	r2, #0
     b04:	d125      	bne.n	b52 <__aeabi_fsub+0x1d2>
     b06:	1c62      	adds	r2, r4, #1
     b08:	b2d2      	uxtb	r2, r2
     b0a:	2a01      	cmp	r2, #1
     b0c:	dd72      	ble.n	bf4 <__aeabi_fsub+0x274>
     b0e:	1b9f      	subs	r7, r3, r6
     b10:	017a      	lsls	r2, r7, #5
     b12:	d535      	bpl.n	b80 <__aeabi_fsub+0x200>
     b14:	1af7      	subs	r7, r6, r3
     b16:	000d      	movs	r5, r1
     b18:	e764      	b.n	9e4 <__aeabi_fsub+0x64>
     b1a:	2201      	movs	r2, #1
     b1c:	2300      	movs	r3, #0
     b1e:	402a      	ands	r2, r5
     b20:	e786      	b.n	a30 <__aeabi_fsub+0xb0>
     b22:	003b      	movs	r3, r7
     b24:	4a63      	ldr	r2, [pc, #396]	; (cb4 <__aeabi_fsub+0x334>)
     b26:	1a24      	subs	r4, r4, r0
     b28:	4013      	ands	r3, r2
     b2a:	e76f      	b.n	a0c <__aeabi_fsub+0x8c>
     b2c:	2900      	cmp	r1, #0
     b2e:	d16c      	bne.n	c0a <__aeabi_fsub+0x28a>
     b30:	1c61      	adds	r1, r4, #1
     b32:	b2c8      	uxtb	r0, r1
     b34:	2801      	cmp	r0, #1
     b36:	dd4e      	ble.n	bd6 <__aeabi_fsub+0x256>
     b38:	29ff      	cmp	r1, #255	; 0xff
     b3a:	d049      	beq.n	bd0 <__aeabi_fsub+0x250>
     b3c:	199b      	adds	r3, r3, r6
     b3e:	085b      	lsrs	r3, r3, #1
     b40:	000c      	movs	r4, r1
     b42:	e763      	b.n	a0c <__aeabi_fsub+0x8c>
     b44:	2aff      	cmp	r2, #255	; 0xff
     b46:	d041      	beq.n	bcc <__aeabi_fsub+0x24c>
     b48:	000a      	movs	r2, r1
     b4a:	e781      	b.n	a50 <__aeabi_fsub+0xd0>
     b4c:	2601      	movs	r6, #1
     b4e:	1b9b      	subs	r3, r3, r6
     b50:	e789      	b.n	a66 <__aeabi_fsub+0xe6>
     b52:	2c00      	cmp	r4, #0
     b54:	d01c      	beq.n	b90 <__aeabi_fsub+0x210>
     b56:	28ff      	cmp	r0, #255	; 0xff
     b58:	d021      	beq.n	b9e <__aeabi_fsub+0x21e>
     b5a:	2480      	movs	r4, #128	; 0x80
     b5c:	04e4      	lsls	r4, r4, #19
     b5e:	4252      	negs	r2, r2
     b60:	4323      	orrs	r3, r4
     b62:	2a1b      	cmp	r2, #27
     b64:	dd00      	ble.n	b68 <__aeabi_fsub+0x1e8>
     b66:	e096      	b.n	c96 <__aeabi_fsub+0x316>
     b68:	001c      	movs	r4, r3
     b6a:	2520      	movs	r5, #32
     b6c:	40d4      	lsrs	r4, r2
     b6e:	1aaa      	subs	r2, r5, r2
     b70:	4093      	lsls	r3, r2
     b72:	1e5a      	subs	r2, r3, #1
     b74:	4193      	sbcs	r3, r2
     b76:	4323      	orrs	r3, r4
     b78:	1af3      	subs	r3, r6, r3
     b7a:	0004      	movs	r4, r0
     b7c:	000d      	movs	r5, r1
     b7e:	e72d      	b.n	9dc <__aeabi_fsub+0x5c>
     b80:	2f00      	cmp	r7, #0
     b82:	d000      	beq.n	b86 <__aeabi_fsub+0x206>
     b84:	e72e      	b.n	9e4 <__aeabi_fsub+0x64>
     b86:	2200      	movs	r2, #0
     b88:	2400      	movs	r4, #0
     b8a:	e7a9      	b.n	ae0 <__aeabi_fsub+0x160>
     b8c:	000c      	movs	r4, r1
     b8e:	e73d      	b.n	a0c <__aeabi_fsub+0x8c>
     b90:	2b00      	cmp	r3, #0
     b92:	d058      	beq.n	c46 <__aeabi_fsub+0x2c6>
     b94:	43d2      	mvns	r2, r2
     b96:	2a00      	cmp	r2, #0
     b98:	d0ee      	beq.n	b78 <__aeabi_fsub+0x1f8>
     b9a:	28ff      	cmp	r0, #255	; 0xff
     b9c:	d1e1      	bne.n	b62 <__aeabi_fsub+0x1e2>
     b9e:	0033      	movs	r3, r6
     ba0:	24ff      	movs	r4, #255	; 0xff
     ba2:	000d      	movs	r5, r1
     ba4:	e732      	b.n	a0c <__aeabi_fsub+0x8c>
     ba6:	29ff      	cmp	r1, #255	; 0xff
     ba8:	d010      	beq.n	bcc <__aeabi_fsub+0x24c>
     baa:	0001      	movs	r1, r0
     bac:	e778      	b.n	aa0 <__aeabi_fsub+0x120>
     bae:	2b00      	cmp	r3, #0
     bb0:	d06e      	beq.n	c90 <__aeabi_fsub+0x310>
     bb2:	24ff      	movs	r4, #255	; 0xff
     bb4:	2e00      	cmp	r6, #0
     bb6:	d100      	bne.n	bba <__aeabi_fsub+0x23a>
     bb8:	e728      	b.n	a0c <__aeabi_fsub+0x8c>
     bba:	2280      	movs	r2, #128	; 0x80
     bbc:	4651      	mov	r1, sl
     bbe:	03d2      	lsls	r2, r2, #15
     bc0:	4211      	tst	r1, r2
     bc2:	d003      	beq.n	bcc <__aeabi_fsub+0x24c>
     bc4:	4661      	mov	r1, ip
     bc6:	4211      	tst	r1, r2
     bc8:	d100      	bne.n	bcc <__aeabi_fsub+0x24c>
     bca:	0033      	movs	r3, r6
     bcc:	24ff      	movs	r4, #255	; 0xff
     bce:	e71d      	b.n	a0c <__aeabi_fsub+0x8c>
     bd0:	24ff      	movs	r4, #255	; 0xff
     bd2:	2300      	movs	r3, #0
     bd4:	e72c      	b.n	a30 <__aeabi_fsub+0xb0>
     bd6:	2c00      	cmp	r4, #0
     bd8:	d1e9      	bne.n	bae <__aeabi_fsub+0x22e>
     bda:	2b00      	cmp	r3, #0
     bdc:	d063      	beq.n	ca6 <__aeabi_fsub+0x326>
     bde:	2e00      	cmp	r6, #0
     be0:	d100      	bne.n	be4 <__aeabi_fsub+0x264>
     be2:	e713      	b.n	a0c <__aeabi_fsub+0x8c>
     be4:	199b      	adds	r3, r3, r6
     be6:	015a      	lsls	r2, r3, #5
     be8:	d400      	bmi.n	bec <__aeabi_fsub+0x26c>
     bea:	e73e      	b.n	a6a <__aeabi_fsub+0xea>
     bec:	4a31      	ldr	r2, [pc, #196]	; (cb4 <__aeabi_fsub+0x334>)
     bee:	000c      	movs	r4, r1
     bf0:	4013      	ands	r3, r2
     bf2:	e70b      	b.n	a0c <__aeabi_fsub+0x8c>
     bf4:	2c00      	cmp	r4, #0
     bf6:	d11e      	bne.n	c36 <__aeabi_fsub+0x2b6>
     bf8:	2b00      	cmp	r3, #0
     bfa:	d12f      	bne.n	c5c <__aeabi_fsub+0x2dc>
     bfc:	2e00      	cmp	r6, #0
     bfe:	d04f      	beq.n	ca0 <__aeabi_fsub+0x320>
     c00:	0033      	movs	r3, r6
     c02:	000d      	movs	r5, r1
     c04:	e702      	b.n	a0c <__aeabi_fsub+0x8c>
     c06:	2601      	movs	r6, #1
     c08:	e755      	b.n	ab6 <__aeabi_fsub+0x136>
     c0a:	2c00      	cmp	r4, #0
     c0c:	d11f      	bne.n	c4e <__aeabi_fsub+0x2ce>
     c0e:	2b00      	cmp	r3, #0
     c10:	d043      	beq.n	c9a <__aeabi_fsub+0x31a>
     c12:	43c9      	mvns	r1, r1
     c14:	2900      	cmp	r1, #0
     c16:	d00b      	beq.n	c30 <__aeabi_fsub+0x2b0>
     c18:	28ff      	cmp	r0, #255	; 0xff
     c1a:	d039      	beq.n	c90 <__aeabi_fsub+0x310>
     c1c:	291b      	cmp	r1, #27
     c1e:	dc44      	bgt.n	caa <__aeabi_fsub+0x32a>
     c20:	001c      	movs	r4, r3
     c22:	2720      	movs	r7, #32
     c24:	40cc      	lsrs	r4, r1
     c26:	1a79      	subs	r1, r7, r1
     c28:	408b      	lsls	r3, r1
     c2a:	1e59      	subs	r1, r3, #1
     c2c:	418b      	sbcs	r3, r1
     c2e:	4323      	orrs	r3, r4
     c30:	199b      	adds	r3, r3, r6
     c32:	0004      	movs	r4, r0
     c34:	e740      	b.n	ab8 <__aeabi_fsub+0x138>
     c36:	2b00      	cmp	r3, #0
     c38:	d11a      	bne.n	c70 <__aeabi_fsub+0x2f0>
     c3a:	2e00      	cmp	r6, #0
     c3c:	d124      	bne.n	c88 <__aeabi_fsub+0x308>
     c3e:	2780      	movs	r7, #128	; 0x80
     c40:	2200      	movs	r2, #0
     c42:	03ff      	lsls	r7, r7, #15
     c44:	e71b      	b.n	a7e <__aeabi_fsub+0xfe>
     c46:	0033      	movs	r3, r6
     c48:	0004      	movs	r4, r0
     c4a:	000d      	movs	r5, r1
     c4c:	e6de      	b.n	a0c <__aeabi_fsub+0x8c>
     c4e:	28ff      	cmp	r0, #255	; 0xff
     c50:	d01e      	beq.n	c90 <__aeabi_fsub+0x310>
     c52:	2480      	movs	r4, #128	; 0x80
     c54:	04e4      	lsls	r4, r4, #19
     c56:	4249      	negs	r1, r1
     c58:	4323      	orrs	r3, r4
     c5a:	e7df      	b.n	c1c <__aeabi_fsub+0x29c>
     c5c:	2e00      	cmp	r6, #0
     c5e:	d100      	bne.n	c62 <__aeabi_fsub+0x2e2>
     c60:	e6d4      	b.n	a0c <__aeabi_fsub+0x8c>
     c62:	1b9f      	subs	r7, r3, r6
     c64:	017a      	lsls	r2, r7, #5
     c66:	d400      	bmi.n	c6a <__aeabi_fsub+0x2ea>
     c68:	e737      	b.n	ada <__aeabi_fsub+0x15a>
     c6a:	1af3      	subs	r3, r6, r3
     c6c:	000d      	movs	r5, r1
     c6e:	e6cd      	b.n	a0c <__aeabi_fsub+0x8c>
     c70:	24ff      	movs	r4, #255	; 0xff
     c72:	2e00      	cmp	r6, #0
     c74:	d100      	bne.n	c78 <__aeabi_fsub+0x2f8>
     c76:	e6c9      	b.n	a0c <__aeabi_fsub+0x8c>
     c78:	2280      	movs	r2, #128	; 0x80
     c7a:	4650      	mov	r0, sl
     c7c:	03d2      	lsls	r2, r2, #15
     c7e:	4210      	tst	r0, r2
     c80:	d0a4      	beq.n	bcc <__aeabi_fsub+0x24c>
     c82:	4660      	mov	r0, ip
     c84:	4210      	tst	r0, r2
     c86:	d1a1      	bne.n	bcc <__aeabi_fsub+0x24c>
     c88:	0033      	movs	r3, r6
     c8a:	000d      	movs	r5, r1
     c8c:	24ff      	movs	r4, #255	; 0xff
     c8e:	e6bd      	b.n	a0c <__aeabi_fsub+0x8c>
     c90:	0033      	movs	r3, r6
     c92:	24ff      	movs	r4, #255	; 0xff
     c94:	e6ba      	b.n	a0c <__aeabi_fsub+0x8c>
     c96:	2301      	movs	r3, #1
     c98:	e76e      	b.n	b78 <__aeabi_fsub+0x1f8>
     c9a:	0033      	movs	r3, r6
     c9c:	0004      	movs	r4, r0
     c9e:	e6b5      	b.n	a0c <__aeabi_fsub+0x8c>
     ca0:	2700      	movs	r7, #0
     ca2:	2200      	movs	r2, #0
     ca4:	e71c      	b.n	ae0 <__aeabi_fsub+0x160>
     ca6:	0033      	movs	r3, r6
     ca8:	e6b0      	b.n	a0c <__aeabi_fsub+0x8c>
     caa:	2301      	movs	r3, #1
     cac:	e7c0      	b.n	c30 <__aeabi_fsub+0x2b0>
     cae:	46c0      	nop			; (mov r8, r8)
     cb0:	7dffffff 	.word	0x7dffffff
     cb4:	fbffffff 	.word	0xfbffffff

00000cb8 <__aeabi_f2iz>:
     cb8:	0241      	lsls	r1, r0, #9
     cba:	0043      	lsls	r3, r0, #1
     cbc:	0fc2      	lsrs	r2, r0, #31
     cbe:	0a49      	lsrs	r1, r1, #9
     cc0:	0e1b      	lsrs	r3, r3, #24
     cc2:	2000      	movs	r0, #0
     cc4:	2b7e      	cmp	r3, #126	; 0x7e
     cc6:	dd0d      	ble.n	ce4 <__aeabi_f2iz+0x2c>
     cc8:	2b9d      	cmp	r3, #157	; 0x9d
     cca:	dc0c      	bgt.n	ce6 <__aeabi_f2iz+0x2e>
     ccc:	2080      	movs	r0, #128	; 0x80
     cce:	0400      	lsls	r0, r0, #16
     cd0:	4301      	orrs	r1, r0
     cd2:	2b95      	cmp	r3, #149	; 0x95
     cd4:	dc0a      	bgt.n	cec <__aeabi_f2iz+0x34>
     cd6:	2096      	movs	r0, #150	; 0x96
     cd8:	1ac3      	subs	r3, r0, r3
     cda:	40d9      	lsrs	r1, r3
     cdc:	4248      	negs	r0, r1
     cde:	2a00      	cmp	r2, #0
     ce0:	d100      	bne.n	ce4 <__aeabi_f2iz+0x2c>
     ce2:	0008      	movs	r0, r1
     ce4:	4770      	bx	lr
     ce6:	4b03      	ldr	r3, [pc, #12]	; (cf4 <__aeabi_f2iz+0x3c>)
     ce8:	18d0      	adds	r0, r2, r3
     cea:	e7fb      	b.n	ce4 <__aeabi_f2iz+0x2c>
     cec:	3b96      	subs	r3, #150	; 0x96
     cee:	4099      	lsls	r1, r3
     cf0:	e7f4      	b.n	cdc <__aeabi_f2iz+0x24>
     cf2:	46c0      	nop			; (mov r8, r8)
     cf4:	7fffffff 	.word	0x7fffffff

00000cf8 <__aeabi_ui2f>:
     cf8:	b510      	push	{r4, lr}
     cfa:	1e04      	subs	r4, r0, #0
     cfc:	d027      	beq.n	d4e <__aeabi_ui2f+0x56>
     cfe:	f001 fd31 	bl	2764 <__clzsi2>
     d02:	239e      	movs	r3, #158	; 0x9e
     d04:	1a1b      	subs	r3, r3, r0
     d06:	2b96      	cmp	r3, #150	; 0x96
     d08:	dc0a      	bgt.n	d20 <__aeabi_ui2f+0x28>
     d0a:	2296      	movs	r2, #150	; 0x96
     d0c:	1ad2      	subs	r2, r2, r3
     d0e:	4094      	lsls	r4, r2
     d10:	0264      	lsls	r4, r4, #9
     d12:	0a64      	lsrs	r4, r4, #9
     d14:	b2db      	uxtb	r3, r3
     d16:	0264      	lsls	r4, r4, #9
     d18:	05db      	lsls	r3, r3, #23
     d1a:	0a60      	lsrs	r0, r4, #9
     d1c:	4318      	orrs	r0, r3
     d1e:	bd10      	pop	{r4, pc}
     d20:	2b99      	cmp	r3, #153	; 0x99
     d22:	dc17      	bgt.n	d54 <__aeabi_ui2f+0x5c>
     d24:	2299      	movs	r2, #153	; 0x99
     d26:	1ad2      	subs	r2, r2, r3
     d28:	2a00      	cmp	r2, #0
     d2a:	dd27      	ble.n	d7c <__aeabi_ui2f+0x84>
     d2c:	4094      	lsls	r4, r2
     d2e:	0022      	movs	r2, r4
     d30:	4c13      	ldr	r4, [pc, #76]	; (d80 <__aeabi_ui2f+0x88>)
     d32:	4014      	ands	r4, r2
     d34:	0751      	lsls	r1, r2, #29
     d36:	d004      	beq.n	d42 <__aeabi_ui2f+0x4a>
     d38:	210f      	movs	r1, #15
     d3a:	400a      	ands	r2, r1
     d3c:	2a04      	cmp	r2, #4
     d3e:	d000      	beq.n	d42 <__aeabi_ui2f+0x4a>
     d40:	3404      	adds	r4, #4
     d42:	0162      	lsls	r2, r4, #5
     d44:	d412      	bmi.n	d6c <__aeabi_ui2f+0x74>
     d46:	01a4      	lsls	r4, r4, #6
     d48:	0a64      	lsrs	r4, r4, #9
     d4a:	b2db      	uxtb	r3, r3
     d4c:	e7e3      	b.n	d16 <__aeabi_ui2f+0x1e>
     d4e:	2300      	movs	r3, #0
     d50:	2400      	movs	r4, #0
     d52:	e7e0      	b.n	d16 <__aeabi_ui2f+0x1e>
     d54:	22b9      	movs	r2, #185	; 0xb9
     d56:	0021      	movs	r1, r4
     d58:	1ad2      	subs	r2, r2, r3
     d5a:	4091      	lsls	r1, r2
     d5c:	000a      	movs	r2, r1
     d5e:	1e51      	subs	r1, r2, #1
     d60:	418a      	sbcs	r2, r1
     d62:	2105      	movs	r1, #5
     d64:	1a09      	subs	r1, r1, r0
     d66:	40cc      	lsrs	r4, r1
     d68:	4314      	orrs	r4, r2
     d6a:	e7db      	b.n	d24 <__aeabi_ui2f+0x2c>
     d6c:	4b04      	ldr	r3, [pc, #16]	; (d80 <__aeabi_ui2f+0x88>)
     d6e:	401c      	ands	r4, r3
     d70:	239f      	movs	r3, #159	; 0x9f
     d72:	01a4      	lsls	r4, r4, #6
     d74:	1a1b      	subs	r3, r3, r0
     d76:	0a64      	lsrs	r4, r4, #9
     d78:	b2db      	uxtb	r3, r3
     d7a:	e7cc      	b.n	d16 <__aeabi_ui2f+0x1e>
     d7c:	0022      	movs	r2, r4
     d7e:	e7d7      	b.n	d30 <__aeabi_ui2f+0x38>
     d80:	fbffffff 	.word	0xfbffffff

00000d84 <__aeabi_dadd>:
     d84:	b5f8      	push	{r3, r4, r5, r6, r7, lr}
     d86:	4645      	mov	r5, r8
     d88:	46de      	mov	lr, fp
     d8a:	4657      	mov	r7, sl
     d8c:	464e      	mov	r6, r9
     d8e:	030c      	lsls	r4, r1, #12
     d90:	b5e0      	push	{r5, r6, r7, lr}
     d92:	004e      	lsls	r6, r1, #1
     d94:	0fc9      	lsrs	r1, r1, #31
     d96:	4688      	mov	r8, r1
     d98:	000d      	movs	r5, r1
     d9a:	0a61      	lsrs	r1, r4, #9
     d9c:	0f44      	lsrs	r4, r0, #29
     d9e:	430c      	orrs	r4, r1
     da0:	00c7      	lsls	r7, r0, #3
     da2:	0319      	lsls	r1, r3, #12
     da4:	0058      	lsls	r0, r3, #1
     da6:	0fdb      	lsrs	r3, r3, #31
     da8:	469b      	mov	fp, r3
     daa:	0a4b      	lsrs	r3, r1, #9
     dac:	0f51      	lsrs	r1, r2, #29
     dae:	430b      	orrs	r3, r1
     db0:	0d76      	lsrs	r6, r6, #21
     db2:	0d40      	lsrs	r0, r0, #21
     db4:	0019      	movs	r1, r3
     db6:	00d2      	lsls	r2, r2, #3
     db8:	45d8      	cmp	r8, fp
     dba:	d100      	bne.n	dbe <__aeabi_dadd+0x3a>
     dbc:	e0ae      	b.n	f1c <__aeabi_dadd+0x198>
     dbe:	1a35      	subs	r5, r6, r0
     dc0:	2d00      	cmp	r5, #0
     dc2:	dc00      	bgt.n	dc6 <__aeabi_dadd+0x42>
     dc4:	e0f6      	b.n	fb4 <__aeabi_dadd+0x230>
     dc6:	2800      	cmp	r0, #0
     dc8:	d10f      	bne.n	dea <__aeabi_dadd+0x66>
     dca:	4313      	orrs	r3, r2
     dcc:	d100      	bne.n	dd0 <__aeabi_dadd+0x4c>
     dce:	e0db      	b.n	f88 <__aeabi_dadd+0x204>
     dd0:	1e6b      	subs	r3, r5, #1
     dd2:	2b00      	cmp	r3, #0
     dd4:	d000      	beq.n	dd8 <__aeabi_dadd+0x54>
     dd6:	e137      	b.n	1048 <__aeabi_dadd+0x2c4>
     dd8:	1aba      	subs	r2, r7, r2
     dda:	4297      	cmp	r7, r2
     ddc:	41bf      	sbcs	r7, r7
     dde:	1a64      	subs	r4, r4, r1
     de0:	427f      	negs	r7, r7
     de2:	1be4      	subs	r4, r4, r7
     de4:	2601      	movs	r6, #1
     de6:	0017      	movs	r7, r2
     de8:	e024      	b.n	e34 <__aeabi_dadd+0xb0>
     dea:	4bc6      	ldr	r3, [pc, #792]	; (1104 <__aeabi_dadd+0x380>)
     dec:	429e      	cmp	r6, r3
     dee:	d04d      	beq.n	e8c <__aeabi_dadd+0x108>
     df0:	2380      	movs	r3, #128	; 0x80
     df2:	041b      	lsls	r3, r3, #16
     df4:	4319      	orrs	r1, r3
     df6:	2d38      	cmp	r5, #56	; 0x38
     df8:	dd00      	ble.n	dfc <__aeabi_dadd+0x78>
     dfa:	e107      	b.n	100c <__aeabi_dadd+0x288>
     dfc:	2d1f      	cmp	r5, #31
     dfe:	dd00      	ble.n	e02 <__aeabi_dadd+0x7e>
     e00:	e138      	b.n	1074 <__aeabi_dadd+0x2f0>
     e02:	2020      	movs	r0, #32
     e04:	1b43      	subs	r3, r0, r5
     e06:	469a      	mov	sl, r3
     e08:	000b      	movs	r3, r1
     e0a:	4650      	mov	r0, sl
     e0c:	4083      	lsls	r3, r0
     e0e:	4699      	mov	r9, r3
     e10:	0013      	movs	r3, r2
     e12:	4648      	mov	r0, r9
     e14:	40eb      	lsrs	r3, r5
     e16:	4318      	orrs	r0, r3
     e18:	0003      	movs	r3, r0
     e1a:	4650      	mov	r0, sl
     e1c:	4082      	lsls	r2, r0
     e1e:	1e50      	subs	r0, r2, #1
     e20:	4182      	sbcs	r2, r0
     e22:	40e9      	lsrs	r1, r5
     e24:	431a      	orrs	r2, r3
     e26:	1aba      	subs	r2, r7, r2
     e28:	1a61      	subs	r1, r4, r1
     e2a:	4297      	cmp	r7, r2
     e2c:	41a4      	sbcs	r4, r4
     e2e:	0017      	movs	r7, r2
     e30:	4264      	negs	r4, r4
     e32:	1b0c      	subs	r4, r1, r4
     e34:	0223      	lsls	r3, r4, #8
     e36:	d562      	bpl.n	efe <__aeabi_dadd+0x17a>
     e38:	0264      	lsls	r4, r4, #9
     e3a:	0a65      	lsrs	r5, r4, #9
     e3c:	2d00      	cmp	r5, #0
     e3e:	d100      	bne.n	e42 <__aeabi_dadd+0xbe>
     e40:	e0df      	b.n	1002 <__aeabi_dadd+0x27e>
     e42:	0028      	movs	r0, r5
     e44:	f001 fc8e 	bl	2764 <__clzsi2>
     e48:	0003      	movs	r3, r0
     e4a:	3b08      	subs	r3, #8
     e4c:	2b1f      	cmp	r3, #31
     e4e:	dd00      	ble.n	e52 <__aeabi_dadd+0xce>
     e50:	e0d2      	b.n	ff8 <__aeabi_dadd+0x274>
     e52:	2220      	movs	r2, #32
     e54:	003c      	movs	r4, r7
     e56:	1ad2      	subs	r2, r2, r3
     e58:	409d      	lsls	r5, r3
     e5a:	40d4      	lsrs	r4, r2
     e5c:	409f      	lsls	r7, r3
     e5e:	4325      	orrs	r5, r4
     e60:	429e      	cmp	r6, r3
     e62:	dd00      	ble.n	e66 <__aeabi_dadd+0xe2>
     e64:	e0c4      	b.n	ff0 <__aeabi_dadd+0x26c>
     e66:	1b9e      	subs	r6, r3, r6
     e68:	1c73      	adds	r3, r6, #1
     e6a:	2b1f      	cmp	r3, #31
     e6c:	dd00      	ble.n	e70 <__aeabi_dadd+0xec>
     e6e:	e0f1      	b.n	1054 <__aeabi_dadd+0x2d0>
     e70:	2220      	movs	r2, #32
     e72:	0038      	movs	r0, r7
     e74:	0029      	movs	r1, r5
     e76:	1ad2      	subs	r2, r2, r3
     e78:	40d8      	lsrs	r0, r3
     e7a:	4091      	lsls	r1, r2
     e7c:	4097      	lsls	r7, r2
     e7e:	002c      	movs	r4, r5
     e80:	4301      	orrs	r1, r0
     e82:	1e78      	subs	r0, r7, #1
     e84:	4187      	sbcs	r7, r0
     e86:	40dc      	lsrs	r4, r3
     e88:	2600      	movs	r6, #0
     e8a:	430f      	orrs	r7, r1
     e8c:	077b      	lsls	r3, r7, #29
     e8e:	d009      	beq.n	ea4 <__aeabi_dadd+0x120>
     e90:	230f      	movs	r3, #15
     e92:	403b      	ands	r3, r7
     e94:	2b04      	cmp	r3, #4
     e96:	d005      	beq.n	ea4 <__aeabi_dadd+0x120>
     e98:	1d3b      	adds	r3, r7, #4
     e9a:	42bb      	cmp	r3, r7
     e9c:	41bf      	sbcs	r7, r7
     e9e:	427f      	negs	r7, r7
     ea0:	19e4      	adds	r4, r4, r7
     ea2:	001f      	movs	r7, r3
     ea4:	0223      	lsls	r3, r4, #8
     ea6:	d52c      	bpl.n	f02 <__aeabi_dadd+0x17e>
     ea8:	4b96      	ldr	r3, [pc, #600]	; (1104 <__aeabi_dadd+0x380>)
     eaa:	3601      	adds	r6, #1
     eac:	429e      	cmp	r6, r3
     eae:	d100      	bne.n	eb2 <__aeabi_dadd+0x12e>
     eb0:	e09a      	b.n	fe8 <__aeabi_dadd+0x264>
     eb2:	4645      	mov	r5, r8
     eb4:	4b94      	ldr	r3, [pc, #592]	; (1108 <__aeabi_dadd+0x384>)
     eb6:	08ff      	lsrs	r7, r7, #3
     eb8:	401c      	ands	r4, r3
     eba:	0760      	lsls	r0, r4, #29
     ebc:	0576      	lsls	r6, r6, #21
     ebe:	0264      	lsls	r4, r4, #9
     ec0:	4307      	orrs	r7, r0
     ec2:	0b24      	lsrs	r4, r4, #12
     ec4:	0d76      	lsrs	r6, r6, #21
     ec6:	2100      	movs	r1, #0
     ec8:	0324      	lsls	r4, r4, #12
     eca:	0b23      	lsrs	r3, r4, #12
     ecc:	0d0c      	lsrs	r4, r1, #20
     ece:	4a8f      	ldr	r2, [pc, #572]	; (110c <__aeabi_dadd+0x388>)
     ed0:	0524      	lsls	r4, r4, #20
     ed2:	431c      	orrs	r4, r3
     ed4:	4014      	ands	r4, r2
     ed6:	0533      	lsls	r3, r6, #20
     ed8:	4323      	orrs	r3, r4
     eda:	005b      	lsls	r3, r3, #1
     edc:	07ed      	lsls	r5, r5, #31
     ede:	085b      	lsrs	r3, r3, #1
     ee0:	432b      	orrs	r3, r5
     ee2:	0038      	movs	r0, r7
     ee4:	0019      	movs	r1, r3
     ee6:	bc3c      	pop	{r2, r3, r4, r5}
     ee8:	4690      	mov	r8, r2
     eea:	4699      	mov	r9, r3
     eec:	46a2      	mov	sl, r4
     eee:	46ab      	mov	fp, r5
     ef0:	bdf8      	pop	{r3, r4, r5, r6, r7, pc}
     ef2:	4664      	mov	r4, ip
     ef4:	4304      	orrs	r4, r0
     ef6:	d100      	bne.n	efa <__aeabi_dadd+0x176>
     ef8:	e211      	b.n	131e <__aeabi_dadd+0x59a>
     efa:	0004      	movs	r4, r0
     efc:	4667      	mov	r7, ip
     efe:	077b      	lsls	r3, r7, #29
     f00:	d1c6      	bne.n	e90 <__aeabi_dadd+0x10c>
     f02:	4645      	mov	r5, r8
     f04:	0760      	lsls	r0, r4, #29
     f06:	08ff      	lsrs	r7, r7, #3
     f08:	4307      	orrs	r7, r0
     f0a:	08e4      	lsrs	r4, r4, #3
     f0c:	4b7d      	ldr	r3, [pc, #500]	; (1104 <__aeabi_dadd+0x380>)
     f0e:	429e      	cmp	r6, r3
     f10:	d030      	beq.n	f74 <__aeabi_dadd+0x1f0>
     f12:	0324      	lsls	r4, r4, #12
     f14:	0576      	lsls	r6, r6, #21
     f16:	0b24      	lsrs	r4, r4, #12
     f18:	0d76      	lsrs	r6, r6, #21
     f1a:	e7d4      	b.n	ec6 <__aeabi_dadd+0x142>
     f1c:	1a33      	subs	r3, r6, r0
     f1e:	469a      	mov	sl, r3
     f20:	2b00      	cmp	r3, #0
     f22:	dd78      	ble.n	1016 <__aeabi_dadd+0x292>
     f24:	2800      	cmp	r0, #0
     f26:	d031      	beq.n	f8c <__aeabi_dadd+0x208>
     f28:	4876      	ldr	r0, [pc, #472]	; (1104 <__aeabi_dadd+0x380>)
     f2a:	4286      	cmp	r6, r0
     f2c:	d0ae      	beq.n	e8c <__aeabi_dadd+0x108>
     f2e:	2080      	movs	r0, #128	; 0x80
     f30:	0400      	lsls	r0, r0, #16
     f32:	4301      	orrs	r1, r0
     f34:	4653      	mov	r3, sl
     f36:	2b38      	cmp	r3, #56	; 0x38
     f38:	dc00      	bgt.n	f3c <__aeabi_dadd+0x1b8>
     f3a:	e0e9      	b.n	1110 <__aeabi_dadd+0x38c>
     f3c:	430a      	orrs	r2, r1
     f3e:	1e51      	subs	r1, r2, #1
     f40:	418a      	sbcs	r2, r1
     f42:	2100      	movs	r1, #0
     f44:	19d2      	adds	r2, r2, r7
     f46:	42ba      	cmp	r2, r7
     f48:	41bf      	sbcs	r7, r7
     f4a:	1909      	adds	r1, r1, r4
     f4c:	427c      	negs	r4, r7
     f4e:	0017      	movs	r7, r2
     f50:	190c      	adds	r4, r1, r4
     f52:	0223      	lsls	r3, r4, #8
     f54:	d5d3      	bpl.n	efe <__aeabi_dadd+0x17a>
     f56:	4b6b      	ldr	r3, [pc, #428]	; (1104 <__aeabi_dadd+0x380>)
     f58:	3601      	adds	r6, #1
     f5a:	429e      	cmp	r6, r3
     f5c:	d100      	bne.n	f60 <__aeabi_dadd+0x1dc>
     f5e:	e13a      	b.n	11d6 <__aeabi_dadd+0x452>
     f60:	2001      	movs	r0, #1
     f62:	4b69      	ldr	r3, [pc, #420]	; (1108 <__aeabi_dadd+0x384>)
     f64:	401c      	ands	r4, r3
     f66:	087b      	lsrs	r3, r7, #1
     f68:	4007      	ands	r7, r0
     f6a:	431f      	orrs	r7, r3
     f6c:	07e0      	lsls	r0, r4, #31
     f6e:	4307      	orrs	r7, r0
     f70:	0864      	lsrs	r4, r4, #1
     f72:	e78b      	b.n	e8c <__aeabi_dadd+0x108>
     f74:	0023      	movs	r3, r4
     f76:	433b      	orrs	r3, r7
     f78:	d100      	bne.n	f7c <__aeabi_dadd+0x1f8>
     f7a:	e1cb      	b.n	1314 <__aeabi_dadd+0x590>
     f7c:	2280      	movs	r2, #128	; 0x80
     f7e:	0312      	lsls	r2, r2, #12
     f80:	4314      	orrs	r4, r2
     f82:	0324      	lsls	r4, r4, #12
     f84:	0b24      	lsrs	r4, r4, #12
     f86:	e79e      	b.n	ec6 <__aeabi_dadd+0x142>
     f88:	002e      	movs	r6, r5
     f8a:	e77f      	b.n	e8c <__aeabi_dadd+0x108>
     f8c:	0008      	movs	r0, r1
     f8e:	4310      	orrs	r0, r2
     f90:	d100      	bne.n	f94 <__aeabi_dadd+0x210>
     f92:	e0b4      	b.n	10fe <__aeabi_dadd+0x37a>
     f94:	1e58      	subs	r0, r3, #1
     f96:	2800      	cmp	r0, #0
     f98:	d000      	beq.n	f9c <__aeabi_dadd+0x218>
     f9a:	e0de      	b.n	115a <__aeabi_dadd+0x3d6>
     f9c:	18ba      	adds	r2, r7, r2
     f9e:	42ba      	cmp	r2, r7
     fa0:	419b      	sbcs	r3, r3
     fa2:	1864      	adds	r4, r4, r1
     fa4:	425b      	negs	r3, r3
     fa6:	18e4      	adds	r4, r4, r3
     fa8:	0017      	movs	r7, r2
     faa:	2601      	movs	r6, #1
     fac:	0223      	lsls	r3, r4, #8
     fae:	d5a6      	bpl.n	efe <__aeabi_dadd+0x17a>
     fb0:	2602      	movs	r6, #2
     fb2:	e7d5      	b.n	f60 <__aeabi_dadd+0x1dc>
     fb4:	2d00      	cmp	r5, #0
     fb6:	d16e      	bne.n	1096 <__aeabi_dadd+0x312>
     fb8:	1c70      	adds	r0, r6, #1
     fba:	0540      	lsls	r0, r0, #21
     fbc:	0d40      	lsrs	r0, r0, #21
     fbe:	2801      	cmp	r0, #1
     fc0:	dc00      	bgt.n	fc4 <__aeabi_dadd+0x240>
     fc2:	e0f9      	b.n	11b8 <__aeabi_dadd+0x434>
     fc4:	1ab8      	subs	r0, r7, r2
     fc6:	4684      	mov	ip, r0
     fc8:	4287      	cmp	r7, r0
     fca:	4180      	sbcs	r0, r0
     fcc:	1ae5      	subs	r5, r4, r3
     fce:	4240      	negs	r0, r0
     fd0:	1a2d      	subs	r5, r5, r0
     fd2:	0228      	lsls	r0, r5, #8
     fd4:	d400      	bmi.n	fd8 <__aeabi_dadd+0x254>
     fd6:	e089      	b.n	10ec <__aeabi_dadd+0x368>
     fd8:	1bd7      	subs	r7, r2, r7
     fda:	42ba      	cmp	r2, r7
     fdc:	4192      	sbcs	r2, r2
     fde:	1b1c      	subs	r4, r3, r4
     fe0:	4252      	negs	r2, r2
     fe2:	1aa5      	subs	r5, r4, r2
     fe4:	46d8      	mov	r8, fp
     fe6:	e729      	b.n	e3c <__aeabi_dadd+0xb8>
     fe8:	4645      	mov	r5, r8
     fea:	2400      	movs	r4, #0
     fec:	2700      	movs	r7, #0
     fee:	e76a      	b.n	ec6 <__aeabi_dadd+0x142>
     ff0:	4c45      	ldr	r4, [pc, #276]	; (1108 <__aeabi_dadd+0x384>)
     ff2:	1af6      	subs	r6, r6, r3
     ff4:	402c      	ands	r4, r5
     ff6:	e749      	b.n	e8c <__aeabi_dadd+0x108>
     ff8:	003d      	movs	r5, r7
     ffa:	3828      	subs	r0, #40	; 0x28
     ffc:	4085      	lsls	r5, r0
     ffe:	2700      	movs	r7, #0
    1000:	e72e      	b.n	e60 <__aeabi_dadd+0xdc>
    1002:	0038      	movs	r0, r7
    1004:	f001 fbae 	bl	2764 <__clzsi2>
    1008:	3020      	adds	r0, #32
    100a:	e71d      	b.n	e48 <__aeabi_dadd+0xc4>
    100c:	430a      	orrs	r2, r1
    100e:	1e51      	subs	r1, r2, #1
    1010:	418a      	sbcs	r2, r1
    1012:	2100      	movs	r1, #0
    1014:	e707      	b.n	e26 <__aeabi_dadd+0xa2>
    1016:	2b00      	cmp	r3, #0
    1018:	d000      	beq.n	101c <__aeabi_dadd+0x298>
    101a:	e0f3      	b.n	1204 <__aeabi_dadd+0x480>
    101c:	1c70      	adds	r0, r6, #1
    101e:	0543      	lsls	r3, r0, #21
    1020:	0d5b      	lsrs	r3, r3, #21
    1022:	2b01      	cmp	r3, #1
    1024:	dc00      	bgt.n	1028 <__aeabi_dadd+0x2a4>
    1026:	e0ad      	b.n	1184 <__aeabi_dadd+0x400>
    1028:	4b36      	ldr	r3, [pc, #216]	; (1104 <__aeabi_dadd+0x380>)
    102a:	4298      	cmp	r0, r3
    102c:	d100      	bne.n	1030 <__aeabi_dadd+0x2ac>
    102e:	e0d1      	b.n	11d4 <__aeabi_dadd+0x450>
    1030:	18ba      	adds	r2, r7, r2
    1032:	42ba      	cmp	r2, r7
    1034:	41bf      	sbcs	r7, r7
    1036:	1864      	adds	r4, r4, r1
    1038:	427f      	negs	r7, r7
    103a:	19e4      	adds	r4, r4, r7
    103c:	07e7      	lsls	r7, r4, #31
    103e:	0852      	lsrs	r2, r2, #1
    1040:	4317      	orrs	r7, r2
    1042:	0864      	lsrs	r4, r4, #1
    1044:	0006      	movs	r6, r0
    1046:	e721      	b.n	e8c <__aeabi_dadd+0x108>
    1048:	482e      	ldr	r0, [pc, #184]	; (1104 <__aeabi_dadd+0x380>)
    104a:	4285      	cmp	r5, r0
    104c:	d100      	bne.n	1050 <__aeabi_dadd+0x2cc>
    104e:	e093      	b.n	1178 <__aeabi_dadd+0x3f4>
    1050:	001d      	movs	r5, r3
    1052:	e6d0      	b.n	df6 <__aeabi_dadd+0x72>
    1054:	0029      	movs	r1, r5
    1056:	3e1f      	subs	r6, #31
    1058:	40f1      	lsrs	r1, r6
    105a:	2b20      	cmp	r3, #32
    105c:	d100      	bne.n	1060 <__aeabi_dadd+0x2dc>
    105e:	e08d      	b.n	117c <__aeabi_dadd+0x3f8>
    1060:	2240      	movs	r2, #64	; 0x40
    1062:	1ad3      	subs	r3, r2, r3
    1064:	409d      	lsls	r5, r3
    1066:	432f      	orrs	r7, r5
    1068:	1e7d      	subs	r5, r7, #1
    106a:	41af      	sbcs	r7, r5
    106c:	2400      	movs	r4, #0
    106e:	430f      	orrs	r7, r1
    1070:	2600      	movs	r6, #0
    1072:	e744      	b.n	efe <__aeabi_dadd+0x17a>
    1074:	002b      	movs	r3, r5
    1076:	0008      	movs	r0, r1
    1078:	3b20      	subs	r3, #32
    107a:	40d8      	lsrs	r0, r3
    107c:	0003      	movs	r3, r0
    107e:	2d20      	cmp	r5, #32
    1080:	d100      	bne.n	1084 <__aeabi_dadd+0x300>
    1082:	e07d      	b.n	1180 <__aeabi_dadd+0x3fc>
    1084:	2040      	movs	r0, #64	; 0x40
    1086:	1b45      	subs	r5, r0, r5
    1088:	40a9      	lsls	r1, r5
    108a:	430a      	orrs	r2, r1
    108c:	1e51      	subs	r1, r2, #1
    108e:	418a      	sbcs	r2, r1
    1090:	2100      	movs	r1, #0
    1092:	431a      	orrs	r2, r3
    1094:	e6c7      	b.n	e26 <__aeabi_dadd+0xa2>
    1096:	2e00      	cmp	r6, #0
    1098:	d050      	beq.n	113c <__aeabi_dadd+0x3b8>
    109a:	4e1a      	ldr	r6, [pc, #104]	; (1104 <__aeabi_dadd+0x380>)
    109c:	42b0      	cmp	r0, r6
    109e:	d057      	beq.n	1150 <__aeabi_dadd+0x3cc>
    10a0:	2680      	movs	r6, #128	; 0x80
    10a2:	426b      	negs	r3, r5
    10a4:	4699      	mov	r9, r3
    10a6:	0436      	lsls	r6, r6, #16
    10a8:	4334      	orrs	r4, r6
    10aa:	464b      	mov	r3, r9
    10ac:	2b38      	cmp	r3, #56	; 0x38
    10ae:	dd00      	ble.n	10b2 <__aeabi_dadd+0x32e>
    10b0:	e0d6      	b.n	1260 <__aeabi_dadd+0x4dc>
    10b2:	2b1f      	cmp	r3, #31
    10b4:	dd00      	ble.n	10b8 <__aeabi_dadd+0x334>
    10b6:	e135      	b.n	1324 <__aeabi_dadd+0x5a0>
    10b8:	2620      	movs	r6, #32
    10ba:	1af5      	subs	r5, r6, r3
    10bc:	0026      	movs	r6, r4
    10be:	40ae      	lsls	r6, r5
    10c0:	46b2      	mov	sl, r6
    10c2:	003e      	movs	r6, r7
    10c4:	40de      	lsrs	r6, r3
    10c6:	46ac      	mov	ip, r5
    10c8:	0035      	movs	r5, r6
    10ca:	4656      	mov	r6, sl
    10cc:	432e      	orrs	r6, r5
    10ce:	4665      	mov	r5, ip
    10d0:	40af      	lsls	r7, r5
    10d2:	1e7d      	subs	r5, r7, #1
    10d4:	41af      	sbcs	r7, r5
    10d6:	40dc      	lsrs	r4, r3
    10d8:	4337      	orrs	r7, r6
    10da:	1bd7      	subs	r7, r2, r7
    10dc:	42ba      	cmp	r2, r7
    10de:	4192      	sbcs	r2, r2
    10e0:	1b0c      	subs	r4, r1, r4
    10e2:	4252      	negs	r2, r2
    10e4:	1aa4      	subs	r4, r4, r2
    10e6:	0006      	movs	r6, r0
    10e8:	46d8      	mov	r8, fp
    10ea:	e6a3      	b.n	e34 <__aeabi_dadd+0xb0>
    10ec:	4664      	mov	r4, ip
    10ee:	4667      	mov	r7, ip
    10f0:	432c      	orrs	r4, r5
    10f2:	d000      	beq.n	10f6 <__aeabi_dadd+0x372>
    10f4:	e6a2      	b.n	e3c <__aeabi_dadd+0xb8>
    10f6:	2500      	movs	r5, #0
    10f8:	2600      	movs	r6, #0
    10fa:	2700      	movs	r7, #0
    10fc:	e706      	b.n	f0c <__aeabi_dadd+0x188>
    10fe:	001e      	movs	r6, r3
    1100:	e6c4      	b.n	e8c <__aeabi_dadd+0x108>
    1102:	46c0      	nop			; (mov r8, r8)
    1104:	000007ff 	.word	0x000007ff
    1108:	ff7fffff 	.word	0xff7fffff
    110c:	800fffff 	.word	0x800fffff
    1110:	2b1f      	cmp	r3, #31
    1112:	dc63      	bgt.n	11dc <__aeabi_dadd+0x458>
    1114:	2020      	movs	r0, #32
    1116:	1ac3      	subs	r3, r0, r3
    1118:	0008      	movs	r0, r1
    111a:	4098      	lsls	r0, r3
    111c:	469c      	mov	ip, r3
    111e:	4683      	mov	fp, r0
    1120:	4653      	mov	r3, sl
    1122:	0010      	movs	r0, r2
    1124:	40d8      	lsrs	r0, r3
    1126:	0003      	movs	r3, r0
    1128:	4658      	mov	r0, fp
    112a:	4318      	orrs	r0, r3
    112c:	4663      	mov	r3, ip
    112e:	409a      	lsls	r2, r3
    1130:	1e53      	subs	r3, r2, #1
    1132:	419a      	sbcs	r2, r3
    1134:	4653      	mov	r3, sl
    1136:	4302      	orrs	r2, r0
    1138:	40d9      	lsrs	r1, r3
    113a:	e703      	b.n	f44 <__aeabi_dadd+0x1c0>
    113c:	0026      	movs	r6, r4
    113e:	433e      	orrs	r6, r7
    1140:	d006      	beq.n	1150 <__aeabi_dadd+0x3cc>
    1142:	43eb      	mvns	r3, r5
    1144:	4699      	mov	r9, r3
    1146:	2b00      	cmp	r3, #0
    1148:	d0c7      	beq.n	10da <__aeabi_dadd+0x356>
    114a:	4e94      	ldr	r6, [pc, #592]	; (139c <__aeabi_dadd+0x618>)
    114c:	42b0      	cmp	r0, r6
    114e:	d1ac      	bne.n	10aa <__aeabi_dadd+0x326>
    1150:	000c      	movs	r4, r1
    1152:	0017      	movs	r7, r2
    1154:	0006      	movs	r6, r0
    1156:	46d8      	mov	r8, fp
    1158:	e698      	b.n	e8c <__aeabi_dadd+0x108>
    115a:	4b90      	ldr	r3, [pc, #576]	; (139c <__aeabi_dadd+0x618>)
    115c:	459a      	cmp	sl, r3
    115e:	d00b      	beq.n	1178 <__aeabi_dadd+0x3f4>
    1160:	4682      	mov	sl, r0
    1162:	e6e7      	b.n	f34 <__aeabi_dadd+0x1b0>
    1164:	2800      	cmp	r0, #0
    1166:	d000      	beq.n	116a <__aeabi_dadd+0x3e6>
    1168:	e09e      	b.n	12a8 <__aeabi_dadd+0x524>
    116a:	0018      	movs	r0, r3
    116c:	4310      	orrs	r0, r2
    116e:	d100      	bne.n	1172 <__aeabi_dadd+0x3ee>
    1170:	e0e9      	b.n	1346 <__aeabi_dadd+0x5c2>
    1172:	001c      	movs	r4, r3
    1174:	0017      	movs	r7, r2
    1176:	46d8      	mov	r8, fp
    1178:	4e88      	ldr	r6, [pc, #544]	; (139c <__aeabi_dadd+0x618>)
    117a:	e687      	b.n	e8c <__aeabi_dadd+0x108>
    117c:	2500      	movs	r5, #0
    117e:	e772      	b.n	1066 <__aeabi_dadd+0x2e2>
    1180:	2100      	movs	r1, #0
    1182:	e782      	b.n	108a <__aeabi_dadd+0x306>
    1184:	0023      	movs	r3, r4
    1186:	433b      	orrs	r3, r7
    1188:	2e00      	cmp	r6, #0
    118a:	d000      	beq.n	118e <__aeabi_dadd+0x40a>
    118c:	e0ab      	b.n	12e6 <__aeabi_dadd+0x562>
    118e:	2b00      	cmp	r3, #0
    1190:	d100      	bne.n	1194 <__aeabi_dadd+0x410>
    1192:	e0e7      	b.n	1364 <__aeabi_dadd+0x5e0>
    1194:	000b      	movs	r3, r1
    1196:	4313      	orrs	r3, r2
    1198:	d100      	bne.n	119c <__aeabi_dadd+0x418>
    119a:	e677      	b.n	e8c <__aeabi_dadd+0x108>
    119c:	18ba      	adds	r2, r7, r2
    119e:	42ba      	cmp	r2, r7
    11a0:	41bf      	sbcs	r7, r7
    11a2:	1864      	adds	r4, r4, r1
    11a4:	427f      	negs	r7, r7
    11a6:	19e4      	adds	r4, r4, r7
    11a8:	0223      	lsls	r3, r4, #8
    11aa:	d400      	bmi.n	11ae <__aeabi_dadd+0x42a>
    11ac:	e0f2      	b.n	1394 <__aeabi_dadd+0x610>
    11ae:	4b7c      	ldr	r3, [pc, #496]	; (13a0 <__aeabi_dadd+0x61c>)
    11b0:	0017      	movs	r7, r2
    11b2:	401c      	ands	r4, r3
    11b4:	0006      	movs	r6, r0
    11b6:	e669      	b.n	e8c <__aeabi_dadd+0x108>
    11b8:	0020      	movs	r0, r4
    11ba:	4338      	orrs	r0, r7
    11bc:	2e00      	cmp	r6, #0
    11be:	d1d1      	bne.n	1164 <__aeabi_dadd+0x3e0>
    11c0:	2800      	cmp	r0, #0
    11c2:	d15b      	bne.n	127c <__aeabi_dadd+0x4f8>
    11c4:	001c      	movs	r4, r3
    11c6:	4314      	orrs	r4, r2
    11c8:	d100      	bne.n	11cc <__aeabi_dadd+0x448>
    11ca:	e0a8      	b.n	131e <__aeabi_dadd+0x59a>
    11cc:	001c      	movs	r4, r3
    11ce:	0017      	movs	r7, r2
    11d0:	46d8      	mov	r8, fp
    11d2:	e65b      	b.n	e8c <__aeabi_dadd+0x108>
    11d4:	0006      	movs	r6, r0
    11d6:	2400      	movs	r4, #0
    11d8:	2700      	movs	r7, #0
    11da:	e697      	b.n	f0c <__aeabi_dadd+0x188>
    11dc:	4650      	mov	r0, sl
    11de:	000b      	movs	r3, r1
    11e0:	3820      	subs	r0, #32
    11e2:	40c3      	lsrs	r3, r0
    11e4:	4699      	mov	r9, r3
    11e6:	4653      	mov	r3, sl
    11e8:	2b20      	cmp	r3, #32
    11ea:	d100      	bne.n	11ee <__aeabi_dadd+0x46a>
    11ec:	e095      	b.n	131a <__aeabi_dadd+0x596>
    11ee:	2340      	movs	r3, #64	; 0x40
    11f0:	4650      	mov	r0, sl
    11f2:	1a1b      	subs	r3, r3, r0
    11f4:	4099      	lsls	r1, r3
    11f6:	430a      	orrs	r2, r1
    11f8:	1e51      	subs	r1, r2, #1
    11fa:	418a      	sbcs	r2, r1
    11fc:	464b      	mov	r3, r9
    11fe:	2100      	movs	r1, #0
    1200:	431a      	orrs	r2, r3
    1202:	e69f      	b.n	f44 <__aeabi_dadd+0x1c0>
    1204:	2e00      	cmp	r6, #0
    1206:	d130      	bne.n	126a <__aeabi_dadd+0x4e6>
    1208:	0026      	movs	r6, r4
    120a:	433e      	orrs	r6, r7
    120c:	d067      	beq.n	12de <__aeabi_dadd+0x55a>
    120e:	43db      	mvns	r3, r3
    1210:	469a      	mov	sl, r3
    1212:	2b00      	cmp	r3, #0
    1214:	d01c      	beq.n	1250 <__aeabi_dadd+0x4cc>
    1216:	4e61      	ldr	r6, [pc, #388]	; (139c <__aeabi_dadd+0x618>)
    1218:	42b0      	cmp	r0, r6
    121a:	d060      	beq.n	12de <__aeabi_dadd+0x55a>
    121c:	4653      	mov	r3, sl
    121e:	2b38      	cmp	r3, #56	; 0x38
    1220:	dd00      	ble.n	1224 <__aeabi_dadd+0x4a0>
    1222:	e096      	b.n	1352 <__aeabi_dadd+0x5ce>
    1224:	2b1f      	cmp	r3, #31
    1226:	dd00      	ble.n	122a <__aeabi_dadd+0x4a6>
    1228:	e09f      	b.n	136a <__aeabi_dadd+0x5e6>
    122a:	2620      	movs	r6, #32
    122c:	1af3      	subs	r3, r6, r3
    122e:	0026      	movs	r6, r4
    1230:	409e      	lsls	r6, r3
    1232:	469c      	mov	ip, r3
    1234:	46b3      	mov	fp, r6
    1236:	4653      	mov	r3, sl
    1238:	003e      	movs	r6, r7
    123a:	40de      	lsrs	r6, r3
    123c:	0033      	movs	r3, r6
    123e:	465e      	mov	r6, fp
    1240:	431e      	orrs	r6, r3
    1242:	4663      	mov	r3, ip
    1244:	409f      	lsls	r7, r3
    1246:	1e7b      	subs	r3, r7, #1
    1248:	419f      	sbcs	r7, r3
    124a:	4653      	mov	r3, sl
    124c:	40dc      	lsrs	r4, r3
    124e:	4337      	orrs	r7, r6
    1250:	18bf      	adds	r7, r7, r2
    1252:	4297      	cmp	r7, r2
    1254:	4192      	sbcs	r2, r2
    1256:	1864      	adds	r4, r4, r1
    1258:	4252      	negs	r2, r2
    125a:	18a4      	adds	r4, r4, r2
    125c:	0006      	movs	r6, r0
    125e:	e678      	b.n	f52 <__aeabi_dadd+0x1ce>
    1260:	4327      	orrs	r7, r4
    1262:	1e7c      	subs	r4, r7, #1
    1264:	41a7      	sbcs	r7, r4
    1266:	2400      	movs	r4, #0
    1268:	e737      	b.n	10da <__aeabi_dadd+0x356>
    126a:	4e4c      	ldr	r6, [pc, #304]	; (139c <__aeabi_dadd+0x618>)
    126c:	42b0      	cmp	r0, r6
    126e:	d036      	beq.n	12de <__aeabi_dadd+0x55a>
    1270:	2680      	movs	r6, #128	; 0x80
    1272:	425b      	negs	r3, r3
    1274:	0436      	lsls	r6, r6, #16
    1276:	469a      	mov	sl, r3
    1278:	4334      	orrs	r4, r6
    127a:	e7cf      	b.n	121c <__aeabi_dadd+0x498>
    127c:	0018      	movs	r0, r3
    127e:	4310      	orrs	r0, r2
    1280:	d100      	bne.n	1284 <__aeabi_dadd+0x500>
    1282:	e603      	b.n	e8c <__aeabi_dadd+0x108>
    1284:	1ab8      	subs	r0, r7, r2
    1286:	4684      	mov	ip, r0
    1288:	4567      	cmp	r7, ip
    128a:	41ad      	sbcs	r5, r5
    128c:	1ae0      	subs	r0, r4, r3
    128e:	426d      	negs	r5, r5
    1290:	1b40      	subs	r0, r0, r5
    1292:	0205      	lsls	r5, r0, #8
    1294:	d400      	bmi.n	1298 <__aeabi_dadd+0x514>
    1296:	e62c      	b.n	ef2 <__aeabi_dadd+0x16e>
    1298:	1bd7      	subs	r7, r2, r7
    129a:	42ba      	cmp	r2, r7
    129c:	4192      	sbcs	r2, r2
    129e:	1b1c      	subs	r4, r3, r4
    12a0:	4252      	negs	r2, r2
    12a2:	1aa4      	subs	r4, r4, r2
    12a4:	46d8      	mov	r8, fp
    12a6:	e5f1      	b.n	e8c <__aeabi_dadd+0x108>
    12a8:	0018      	movs	r0, r3
    12aa:	4310      	orrs	r0, r2
    12ac:	d100      	bne.n	12b0 <__aeabi_dadd+0x52c>
    12ae:	e763      	b.n	1178 <__aeabi_dadd+0x3f4>
    12b0:	08f8      	lsrs	r0, r7, #3
    12b2:	0767      	lsls	r7, r4, #29
    12b4:	4307      	orrs	r7, r0
    12b6:	2080      	movs	r0, #128	; 0x80
    12b8:	08e4      	lsrs	r4, r4, #3
    12ba:	0300      	lsls	r0, r0, #12
    12bc:	4204      	tst	r4, r0
    12be:	d008      	beq.n	12d2 <__aeabi_dadd+0x54e>
    12c0:	08dd      	lsrs	r5, r3, #3
    12c2:	4205      	tst	r5, r0
    12c4:	d105      	bne.n	12d2 <__aeabi_dadd+0x54e>
    12c6:	08d2      	lsrs	r2, r2, #3
    12c8:	0759      	lsls	r1, r3, #29
    12ca:	4311      	orrs	r1, r2
    12cc:	000f      	movs	r7, r1
    12ce:	002c      	movs	r4, r5
    12d0:	46d8      	mov	r8, fp
    12d2:	0f7b      	lsrs	r3, r7, #29
    12d4:	00e4      	lsls	r4, r4, #3
    12d6:	431c      	orrs	r4, r3
    12d8:	00ff      	lsls	r7, r7, #3
    12da:	4e30      	ldr	r6, [pc, #192]	; (139c <__aeabi_dadd+0x618>)
    12dc:	e5d6      	b.n	e8c <__aeabi_dadd+0x108>
    12de:	000c      	movs	r4, r1
    12e0:	0017      	movs	r7, r2
    12e2:	0006      	movs	r6, r0
    12e4:	e5d2      	b.n	e8c <__aeabi_dadd+0x108>
    12e6:	2b00      	cmp	r3, #0
    12e8:	d038      	beq.n	135c <__aeabi_dadd+0x5d8>
    12ea:	000b      	movs	r3, r1
    12ec:	4313      	orrs	r3, r2
    12ee:	d100      	bne.n	12f2 <__aeabi_dadd+0x56e>
    12f0:	e742      	b.n	1178 <__aeabi_dadd+0x3f4>
    12f2:	08f8      	lsrs	r0, r7, #3
    12f4:	0767      	lsls	r7, r4, #29
    12f6:	4307      	orrs	r7, r0
    12f8:	2080      	movs	r0, #128	; 0x80
    12fa:	08e4      	lsrs	r4, r4, #3
    12fc:	0300      	lsls	r0, r0, #12
    12fe:	4204      	tst	r4, r0
    1300:	d0e7      	beq.n	12d2 <__aeabi_dadd+0x54e>
    1302:	08cb      	lsrs	r3, r1, #3
    1304:	4203      	tst	r3, r0
    1306:	d1e4      	bne.n	12d2 <__aeabi_dadd+0x54e>
    1308:	08d2      	lsrs	r2, r2, #3
    130a:	0749      	lsls	r1, r1, #29
    130c:	4311      	orrs	r1, r2
    130e:	000f      	movs	r7, r1
    1310:	001c      	movs	r4, r3
    1312:	e7de      	b.n	12d2 <__aeabi_dadd+0x54e>
    1314:	2700      	movs	r7, #0
    1316:	2400      	movs	r4, #0
    1318:	e5d5      	b.n	ec6 <__aeabi_dadd+0x142>
    131a:	2100      	movs	r1, #0
    131c:	e76b      	b.n	11f6 <__aeabi_dadd+0x472>
    131e:	2500      	movs	r5, #0
    1320:	2700      	movs	r7, #0
    1322:	e5f3      	b.n	f0c <__aeabi_dadd+0x188>
    1324:	464e      	mov	r6, r9
    1326:	0025      	movs	r5, r4
    1328:	3e20      	subs	r6, #32
    132a:	40f5      	lsrs	r5, r6
    132c:	464b      	mov	r3, r9
    132e:	002e      	movs	r6, r5
    1330:	2b20      	cmp	r3, #32
    1332:	d02d      	beq.n	1390 <__aeabi_dadd+0x60c>
    1334:	2540      	movs	r5, #64	; 0x40
    1336:	1aed      	subs	r5, r5, r3
    1338:	40ac      	lsls	r4, r5
    133a:	4327      	orrs	r7, r4
    133c:	1e7c      	subs	r4, r7, #1
    133e:	41a7      	sbcs	r7, r4
    1340:	2400      	movs	r4, #0
    1342:	4337      	orrs	r7, r6
    1344:	e6c9      	b.n	10da <__aeabi_dadd+0x356>
    1346:	2480      	movs	r4, #128	; 0x80
    1348:	2500      	movs	r5, #0
    134a:	0324      	lsls	r4, r4, #12
    134c:	4e13      	ldr	r6, [pc, #76]	; (139c <__aeabi_dadd+0x618>)
    134e:	2700      	movs	r7, #0
    1350:	e5dc      	b.n	f0c <__aeabi_dadd+0x188>
    1352:	4327      	orrs	r7, r4
    1354:	1e7c      	subs	r4, r7, #1
    1356:	41a7      	sbcs	r7, r4
    1358:	2400      	movs	r4, #0
    135a:	e779      	b.n	1250 <__aeabi_dadd+0x4cc>
    135c:	000c      	movs	r4, r1
    135e:	0017      	movs	r7, r2
    1360:	4e0e      	ldr	r6, [pc, #56]	; (139c <__aeabi_dadd+0x618>)
    1362:	e593      	b.n	e8c <__aeabi_dadd+0x108>
    1364:	000c      	movs	r4, r1
    1366:	0017      	movs	r7, r2
    1368:	e590      	b.n	e8c <__aeabi_dadd+0x108>
    136a:	4656      	mov	r6, sl
    136c:	0023      	movs	r3, r4
    136e:	3e20      	subs	r6, #32
    1370:	40f3      	lsrs	r3, r6
    1372:	4699      	mov	r9, r3
    1374:	4653      	mov	r3, sl
    1376:	2b20      	cmp	r3, #32
    1378:	d00e      	beq.n	1398 <__aeabi_dadd+0x614>
    137a:	2340      	movs	r3, #64	; 0x40
    137c:	4656      	mov	r6, sl
    137e:	1b9b      	subs	r3, r3, r6
    1380:	409c      	lsls	r4, r3
    1382:	4327      	orrs	r7, r4
    1384:	1e7c      	subs	r4, r7, #1
    1386:	41a7      	sbcs	r7, r4
    1388:	464b      	mov	r3, r9
    138a:	2400      	movs	r4, #0
    138c:	431f      	orrs	r7, r3
    138e:	e75f      	b.n	1250 <__aeabi_dadd+0x4cc>
    1390:	2400      	movs	r4, #0
    1392:	e7d2      	b.n	133a <__aeabi_dadd+0x5b6>
    1394:	0017      	movs	r7, r2
    1396:	e5b2      	b.n	efe <__aeabi_dadd+0x17a>
    1398:	2400      	movs	r4, #0
    139a:	e7f2      	b.n	1382 <__aeabi_dadd+0x5fe>
    139c:	000007ff 	.word	0x000007ff
    13a0:	ff7fffff 	.word	0xff7fffff

000013a4 <__aeabi_ddiv>:
    13a4:	b5f0      	push	{r4, r5, r6, r7, lr}
    13a6:	4657      	mov	r7, sl
    13a8:	4645      	mov	r5, r8
    13aa:	46de      	mov	lr, fp
    13ac:	464e      	mov	r6, r9
    13ae:	b5e0      	push	{r5, r6, r7, lr}
    13b0:	004c      	lsls	r4, r1, #1
    13b2:	030e      	lsls	r6, r1, #12
    13b4:	b087      	sub	sp, #28
    13b6:	4683      	mov	fp, r0
    13b8:	4692      	mov	sl, r2
    13ba:	001d      	movs	r5, r3
    13bc:	4680      	mov	r8, r0
    13be:	0b36      	lsrs	r6, r6, #12
    13c0:	0d64      	lsrs	r4, r4, #21
    13c2:	0fcf      	lsrs	r7, r1, #31
    13c4:	2c00      	cmp	r4, #0
    13c6:	d04f      	beq.n	1468 <__aeabi_ddiv+0xc4>
    13c8:	4b6f      	ldr	r3, [pc, #444]	; (1588 <__aeabi_ddiv+0x1e4>)
    13ca:	429c      	cmp	r4, r3
    13cc:	d035      	beq.n	143a <__aeabi_ddiv+0x96>
    13ce:	2380      	movs	r3, #128	; 0x80
    13d0:	0f42      	lsrs	r2, r0, #29
    13d2:	041b      	lsls	r3, r3, #16
    13d4:	00f6      	lsls	r6, r6, #3
    13d6:	4313      	orrs	r3, r2
    13d8:	4333      	orrs	r3, r6
    13da:	4699      	mov	r9, r3
    13dc:	00c3      	lsls	r3, r0, #3
    13de:	4698      	mov	r8, r3
    13e0:	4b6a      	ldr	r3, [pc, #424]	; (158c <__aeabi_ddiv+0x1e8>)
    13e2:	2600      	movs	r6, #0
    13e4:	469c      	mov	ip, r3
    13e6:	2300      	movs	r3, #0
    13e8:	4464      	add	r4, ip
    13ea:	9303      	str	r3, [sp, #12]
    13ec:	032b      	lsls	r3, r5, #12
    13ee:	0b1b      	lsrs	r3, r3, #12
    13f0:	469b      	mov	fp, r3
    13f2:	006b      	lsls	r3, r5, #1
    13f4:	0fed      	lsrs	r5, r5, #31
    13f6:	4650      	mov	r0, sl
    13f8:	0d5b      	lsrs	r3, r3, #21
    13fa:	9501      	str	r5, [sp, #4]
    13fc:	d05e      	beq.n	14bc <__aeabi_ddiv+0x118>
    13fe:	4a62      	ldr	r2, [pc, #392]	; (1588 <__aeabi_ddiv+0x1e4>)
    1400:	4293      	cmp	r3, r2
    1402:	d053      	beq.n	14ac <__aeabi_ddiv+0x108>
    1404:	465a      	mov	r2, fp
    1406:	00d1      	lsls	r1, r2, #3
    1408:	2280      	movs	r2, #128	; 0x80
    140a:	0f40      	lsrs	r0, r0, #29
    140c:	0412      	lsls	r2, r2, #16
    140e:	4302      	orrs	r2, r0
    1410:	430a      	orrs	r2, r1
    1412:	4693      	mov	fp, r2
    1414:	4652      	mov	r2, sl
    1416:	00d1      	lsls	r1, r2, #3
    1418:	4a5c      	ldr	r2, [pc, #368]	; (158c <__aeabi_ddiv+0x1e8>)
    141a:	4694      	mov	ip, r2
    141c:	2200      	movs	r2, #0
    141e:	4463      	add	r3, ip
    1420:	0038      	movs	r0, r7
    1422:	4068      	eors	r0, r5
    1424:	4684      	mov	ip, r0
    1426:	9002      	str	r0, [sp, #8]
    1428:	1ae4      	subs	r4, r4, r3
    142a:	4316      	orrs	r6, r2
    142c:	2e0f      	cmp	r6, #15
    142e:	d900      	bls.n	1432 <__aeabi_ddiv+0x8e>
    1430:	e0b4      	b.n	159c <__aeabi_ddiv+0x1f8>
    1432:	4b57      	ldr	r3, [pc, #348]	; (1590 <__aeabi_ddiv+0x1ec>)
    1434:	00b6      	lsls	r6, r6, #2
    1436:	599b      	ldr	r3, [r3, r6]
    1438:	469f      	mov	pc, r3
    143a:	0003      	movs	r3, r0
    143c:	4333      	orrs	r3, r6
    143e:	4699      	mov	r9, r3
    1440:	d16c      	bne.n	151c <__aeabi_ddiv+0x178>
    1442:	2300      	movs	r3, #0
    1444:	4698      	mov	r8, r3
    1446:	3302      	adds	r3, #2
    1448:	2608      	movs	r6, #8
    144a:	9303      	str	r3, [sp, #12]
    144c:	e7ce      	b.n	13ec <__aeabi_ddiv+0x48>
    144e:	46cb      	mov	fp, r9
    1450:	4641      	mov	r1, r8
    1452:	9a03      	ldr	r2, [sp, #12]
    1454:	9701      	str	r7, [sp, #4]
    1456:	2a02      	cmp	r2, #2
    1458:	d165      	bne.n	1526 <__aeabi_ddiv+0x182>
    145a:	9b01      	ldr	r3, [sp, #4]
    145c:	4c4a      	ldr	r4, [pc, #296]	; (1588 <__aeabi_ddiv+0x1e4>)
    145e:	469c      	mov	ip, r3
    1460:	2300      	movs	r3, #0
    1462:	2200      	movs	r2, #0
    1464:	4698      	mov	r8, r3
    1466:	e06b      	b.n	1540 <__aeabi_ddiv+0x19c>
    1468:	0003      	movs	r3, r0
    146a:	4333      	orrs	r3, r6
    146c:	4699      	mov	r9, r3
    146e:	d04e      	beq.n	150e <__aeabi_ddiv+0x16a>
    1470:	2e00      	cmp	r6, #0
    1472:	d100      	bne.n	1476 <__aeabi_ddiv+0xd2>
    1474:	e1bc      	b.n	17f0 <__aeabi_ddiv+0x44c>
    1476:	0030      	movs	r0, r6
    1478:	f001 f974 	bl	2764 <__clzsi2>
    147c:	0003      	movs	r3, r0
    147e:	3b0b      	subs	r3, #11
    1480:	2b1c      	cmp	r3, #28
    1482:	dd00      	ble.n	1486 <__aeabi_ddiv+0xe2>
    1484:	e1ac      	b.n	17e0 <__aeabi_ddiv+0x43c>
    1486:	221d      	movs	r2, #29
    1488:	1ad3      	subs	r3, r2, r3
    148a:	465a      	mov	r2, fp
    148c:	0001      	movs	r1, r0
    148e:	40da      	lsrs	r2, r3
    1490:	3908      	subs	r1, #8
    1492:	408e      	lsls	r6, r1
    1494:	0013      	movs	r3, r2
    1496:	4333      	orrs	r3, r6
    1498:	4699      	mov	r9, r3
    149a:	465b      	mov	r3, fp
    149c:	408b      	lsls	r3, r1
    149e:	4698      	mov	r8, r3
    14a0:	2300      	movs	r3, #0
    14a2:	4c3c      	ldr	r4, [pc, #240]	; (1594 <__aeabi_ddiv+0x1f0>)
    14a4:	2600      	movs	r6, #0
    14a6:	1a24      	subs	r4, r4, r0
    14a8:	9303      	str	r3, [sp, #12]
    14aa:	e79f      	b.n	13ec <__aeabi_ddiv+0x48>
    14ac:	4651      	mov	r1, sl
    14ae:	465a      	mov	r2, fp
    14b0:	4311      	orrs	r1, r2
    14b2:	d129      	bne.n	1508 <__aeabi_ddiv+0x164>
    14b4:	2200      	movs	r2, #0
    14b6:	4693      	mov	fp, r2
    14b8:	3202      	adds	r2, #2
    14ba:	e7b1      	b.n	1420 <__aeabi_ddiv+0x7c>
    14bc:	4659      	mov	r1, fp
    14be:	4301      	orrs	r1, r0
    14c0:	d01e      	beq.n	1500 <__aeabi_ddiv+0x15c>
    14c2:	465b      	mov	r3, fp
    14c4:	2b00      	cmp	r3, #0
    14c6:	d100      	bne.n	14ca <__aeabi_ddiv+0x126>
    14c8:	e19e      	b.n	1808 <__aeabi_ddiv+0x464>
    14ca:	4658      	mov	r0, fp
    14cc:	f001 f94a 	bl	2764 <__clzsi2>
    14d0:	0003      	movs	r3, r0
    14d2:	3b0b      	subs	r3, #11
    14d4:	2b1c      	cmp	r3, #28
    14d6:	dd00      	ble.n	14da <__aeabi_ddiv+0x136>
    14d8:	e18f      	b.n	17fa <__aeabi_ddiv+0x456>
    14da:	0002      	movs	r2, r0
    14dc:	4659      	mov	r1, fp
    14de:	3a08      	subs	r2, #8
    14e0:	4091      	lsls	r1, r2
    14e2:	468b      	mov	fp, r1
    14e4:	211d      	movs	r1, #29
    14e6:	1acb      	subs	r3, r1, r3
    14e8:	4651      	mov	r1, sl
    14ea:	40d9      	lsrs	r1, r3
    14ec:	000b      	movs	r3, r1
    14ee:	4659      	mov	r1, fp
    14f0:	430b      	orrs	r3, r1
    14f2:	4651      	mov	r1, sl
    14f4:	469b      	mov	fp, r3
    14f6:	4091      	lsls	r1, r2
    14f8:	4b26      	ldr	r3, [pc, #152]	; (1594 <__aeabi_ddiv+0x1f0>)
    14fa:	2200      	movs	r2, #0
    14fc:	1a1b      	subs	r3, r3, r0
    14fe:	e78f      	b.n	1420 <__aeabi_ddiv+0x7c>
    1500:	2300      	movs	r3, #0
    1502:	2201      	movs	r2, #1
    1504:	469b      	mov	fp, r3
    1506:	e78b      	b.n	1420 <__aeabi_ddiv+0x7c>
    1508:	4651      	mov	r1, sl
    150a:	2203      	movs	r2, #3
    150c:	e788      	b.n	1420 <__aeabi_ddiv+0x7c>
    150e:	2300      	movs	r3, #0
    1510:	4698      	mov	r8, r3
    1512:	3301      	adds	r3, #1
    1514:	2604      	movs	r6, #4
    1516:	2400      	movs	r4, #0
    1518:	9303      	str	r3, [sp, #12]
    151a:	e767      	b.n	13ec <__aeabi_ddiv+0x48>
    151c:	2303      	movs	r3, #3
    151e:	46b1      	mov	r9, r6
    1520:	9303      	str	r3, [sp, #12]
    1522:	260c      	movs	r6, #12
    1524:	e762      	b.n	13ec <__aeabi_ddiv+0x48>
    1526:	2a03      	cmp	r2, #3
    1528:	d100      	bne.n	152c <__aeabi_ddiv+0x188>
    152a:	e25c      	b.n	19e6 <__aeabi_ddiv+0x642>
    152c:	9b01      	ldr	r3, [sp, #4]
    152e:	2a01      	cmp	r2, #1
    1530:	d000      	beq.n	1534 <__aeabi_ddiv+0x190>
    1532:	e1e4      	b.n	18fe <__aeabi_ddiv+0x55a>
    1534:	4013      	ands	r3, r2
    1536:	469c      	mov	ip, r3
    1538:	2300      	movs	r3, #0
    153a:	2400      	movs	r4, #0
    153c:	2200      	movs	r2, #0
    153e:	4698      	mov	r8, r3
    1540:	2100      	movs	r1, #0
    1542:	0312      	lsls	r2, r2, #12
    1544:	0b13      	lsrs	r3, r2, #12
    1546:	0d0a      	lsrs	r2, r1, #20
    1548:	0512      	lsls	r2, r2, #20
    154a:	431a      	orrs	r2, r3
    154c:	0523      	lsls	r3, r4, #20
    154e:	4c12      	ldr	r4, [pc, #72]	; (1598 <__aeabi_ddiv+0x1f4>)
    1550:	4640      	mov	r0, r8
    1552:	4022      	ands	r2, r4
    1554:	4313      	orrs	r3, r2
    1556:	4662      	mov	r2, ip
    1558:	005b      	lsls	r3, r3, #1
    155a:	07d2      	lsls	r2, r2, #31
    155c:	085b      	lsrs	r3, r3, #1
    155e:	4313      	orrs	r3, r2
    1560:	0019      	movs	r1, r3
    1562:	b007      	add	sp, #28
    1564:	bc3c      	pop	{r2, r3, r4, r5}
    1566:	4690      	mov	r8, r2
    1568:	4699      	mov	r9, r3
    156a:	46a2      	mov	sl, r4
    156c:	46ab      	mov	fp, r5
    156e:	bdf0      	pop	{r4, r5, r6, r7, pc}
    1570:	2300      	movs	r3, #0
    1572:	2280      	movs	r2, #128	; 0x80
    1574:	469c      	mov	ip, r3
    1576:	0312      	lsls	r2, r2, #12
    1578:	4698      	mov	r8, r3
    157a:	4c03      	ldr	r4, [pc, #12]	; (1588 <__aeabi_ddiv+0x1e4>)
    157c:	e7e0      	b.n	1540 <__aeabi_ddiv+0x19c>
    157e:	2300      	movs	r3, #0
    1580:	4c01      	ldr	r4, [pc, #4]	; (1588 <__aeabi_ddiv+0x1e4>)
    1582:	2200      	movs	r2, #0
    1584:	4698      	mov	r8, r3
    1586:	e7db      	b.n	1540 <__aeabi_ddiv+0x19c>
    1588:	000007ff 	.word	0x000007ff
    158c:	fffffc01 	.word	0xfffffc01
    1590:	00002978 	.word	0x00002978
    1594:	fffffc0d 	.word	0xfffffc0d
    1598:	800fffff 	.word	0x800fffff
    159c:	45d9      	cmp	r9, fp
    159e:	d900      	bls.n	15a2 <__aeabi_ddiv+0x1fe>
    15a0:	e139      	b.n	1816 <__aeabi_ddiv+0x472>
    15a2:	d100      	bne.n	15a6 <__aeabi_ddiv+0x202>
    15a4:	e134      	b.n	1810 <__aeabi_ddiv+0x46c>
    15a6:	2300      	movs	r3, #0
    15a8:	4646      	mov	r6, r8
    15aa:	464d      	mov	r5, r9
    15ac:	469a      	mov	sl, r3
    15ae:	3c01      	subs	r4, #1
    15b0:	465b      	mov	r3, fp
    15b2:	0e0a      	lsrs	r2, r1, #24
    15b4:	021b      	lsls	r3, r3, #8
    15b6:	431a      	orrs	r2, r3
    15b8:	020b      	lsls	r3, r1, #8
    15ba:	0c17      	lsrs	r7, r2, #16
    15bc:	9303      	str	r3, [sp, #12]
    15be:	0413      	lsls	r3, r2, #16
    15c0:	0c1b      	lsrs	r3, r3, #16
    15c2:	0039      	movs	r1, r7
    15c4:	0028      	movs	r0, r5
    15c6:	4690      	mov	r8, r2
    15c8:	9301      	str	r3, [sp, #4]
    15ca:	f7ff f815 	bl	5f8 <__udivsi3>
    15ce:	0002      	movs	r2, r0
    15d0:	9b01      	ldr	r3, [sp, #4]
    15d2:	4683      	mov	fp, r0
    15d4:	435a      	muls	r2, r3
    15d6:	0028      	movs	r0, r5
    15d8:	0039      	movs	r1, r7
    15da:	4691      	mov	r9, r2
    15dc:	f7ff f892 	bl	704 <__aeabi_uidivmod>
    15e0:	0c35      	lsrs	r5, r6, #16
    15e2:	0409      	lsls	r1, r1, #16
    15e4:	430d      	orrs	r5, r1
    15e6:	45a9      	cmp	r9, r5
    15e8:	d90d      	bls.n	1606 <__aeabi_ddiv+0x262>
    15ea:	465b      	mov	r3, fp
    15ec:	4445      	add	r5, r8
    15ee:	3b01      	subs	r3, #1
    15f0:	45a8      	cmp	r8, r5
    15f2:	d900      	bls.n	15f6 <__aeabi_ddiv+0x252>
    15f4:	e13a      	b.n	186c <__aeabi_ddiv+0x4c8>
    15f6:	45a9      	cmp	r9, r5
    15f8:	d800      	bhi.n	15fc <__aeabi_ddiv+0x258>
    15fa:	e137      	b.n	186c <__aeabi_ddiv+0x4c8>
    15fc:	2302      	movs	r3, #2
    15fe:	425b      	negs	r3, r3
    1600:	469c      	mov	ip, r3
    1602:	4445      	add	r5, r8
    1604:	44e3      	add	fp, ip
    1606:	464b      	mov	r3, r9
    1608:	1aeb      	subs	r3, r5, r3
    160a:	0039      	movs	r1, r7
    160c:	0018      	movs	r0, r3
    160e:	9304      	str	r3, [sp, #16]
    1610:	f7fe fff2 	bl	5f8 <__udivsi3>
    1614:	9b01      	ldr	r3, [sp, #4]
    1616:	0005      	movs	r5, r0
    1618:	4343      	muls	r3, r0
    161a:	0039      	movs	r1, r7
    161c:	9804      	ldr	r0, [sp, #16]
    161e:	4699      	mov	r9, r3
    1620:	f7ff f870 	bl	704 <__aeabi_uidivmod>
    1624:	0433      	lsls	r3, r6, #16
    1626:	0409      	lsls	r1, r1, #16
    1628:	0c1b      	lsrs	r3, r3, #16
    162a:	430b      	orrs	r3, r1
    162c:	4599      	cmp	r9, r3
    162e:	d909      	bls.n	1644 <__aeabi_ddiv+0x2a0>
    1630:	4443      	add	r3, r8
    1632:	1e6a      	subs	r2, r5, #1
    1634:	4598      	cmp	r8, r3
    1636:	d900      	bls.n	163a <__aeabi_ddiv+0x296>
    1638:	e11a      	b.n	1870 <__aeabi_ddiv+0x4cc>
    163a:	4599      	cmp	r9, r3
    163c:	d800      	bhi.n	1640 <__aeabi_ddiv+0x29c>
    163e:	e117      	b.n	1870 <__aeabi_ddiv+0x4cc>
    1640:	3d02      	subs	r5, #2
    1642:	4443      	add	r3, r8
    1644:	464a      	mov	r2, r9
    1646:	1a9b      	subs	r3, r3, r2
    1648:	465a      	mov	r2, fp
    164a:	0412      	lsls	r2, r2, #16
    164c:	432a      	orrs	r2, r5
    164e:	9903      	ldr	r1, [sp, #12]
    1650:	4693      	mov	fp, r2
    1652:	0c10      	lsrs	r0, r2, #16
    1654:	0c0a      	lsrs	r2, r1, #16
    1656:	4691      	mov	r9, r2
    1658:	0409      	lsls	r1, r1, #16
    165a:	465a      	mov	r2, fp
    165c:	0c09      	lsrs	r1, r1, #16
    165e:	464e      	mov	r6, r9
    1660:	000d      	movs	r5, r1
    1662:	0412      	lsls	r2, r2, #16
    1664:	0c12      	lsrs	r2, r2, #16
    1666:	4345      	muls	r5, r0
    1668:	9105      	str	r1, [sp, #20]
    166a:	4351      	muls	r1, r2
    166c:	4372      	muls	r2, r6
    166e:	4370      	muls	r0, r6
    1670:	1952      	adds	r2, r2, r5
    1672:	0c0e      	lsrs	r6, r1, #16
    1674:	18b2      	adds	r2, r6, r2
    1676:	4295      	cmp	r5, r2
    1678:	d903      	bls.n	1682 <__aeabi_ddiv+0x2de>
    167a:	2580      	movs	r5, #128	; 0x80
    167c:	026d      	lsls	r5, r5, #9
    167e:	46ac      	mov	ip, r5
    1680:	4460      	add	r0, ip
    1682:	0c15      	lsrs	r5, r2, #16
    1684:	0409      	lsls	r1, r1, #16
    1686:	0412      	lsls	r2, r2, #16
    1688:	0c09      	lsrs	r1, r1, #16
    168a:	1828      	adds	r0, r5, r0
    168c:	1852      	adds	r2, r2, r1
    168e:	4283      	cmp	r3, r0
    1690:	d200      	bcs.n	1694 <__aeabi_ddiv+0x2f0>
    1692:	e0ce      	b.n	1832 <__aeabi_ddiv+0x48e>
    1694:	d100      	bne.n	1698 <__aeabi_ddiv+0x2f4>
    1696:	e0c8      	b.n	182a <__aeabi_ddiv+0x486>
    1698:	1a1d      	subs	r5, r3, r0
    169a:	4653      	mov	r3, sl
    169c:	1a9e      	subs	r6, r3, r2
    169e:	45b2      	cmp	sl, r6
    16a0:	4192      	sbcs	r2, r2
    16a2:	4252      	negs	r2, r2
    16a4:	1aab      	subs	r3, r5, r2
    16a6:	469a      	mov	sl, r3
    16a8:	4598      	cmp	r8, r3
    16aa:	d100      	bne.n	16ae <__aeabi_ddiv+0x30a>
    16ac:	e117      	b.n	18de <__aeabi_ddiv+0x53a>
    16ae:	0039      	movs	r1, r7
    16b0:	0018      	movs	r0, r3
    16b2:	f7fe ffa1 	bl	5f8 <__udivsi3>
    16b6:	9b01      	ldr	r3, [sp, #4]
    16b8:	0005      	movs	r5, r0
    16ba:	4343      	muls	r3, r0
    16bc:	0039      	movs	r1, r7
    16be:	4650      	mov	r0, sl
    16c0:	9304      	str	r3, [sp, #16]
    16c2:	f7ff f81f 	bl	704 <__aeabi_uidivmod>
    16c6:	9804      	ldr	r0, [sp, #16]
    16c8:	040b      	lsls	r3, r1, #16
    16ca:	0c31      	lsrs	r1, r6, #16
    16cc:	4319      	orrs	r1, r3
    16ce:	4288      	cmp	r0, r1
    16d0:	d909      	bls.n	16e6 <__aeabi_ddiv+0x342>
    16d2:	4441      	add	r1, r8
    16d4:	1e6b      	subs	r3, r5, #1
    16d6:	4588      	cmp	r8, r1
    16d8:	d900      	bls.n	16dc <__aeabi_ddiv+0x338>
    16da:	e107      	b.n	18ec <__aeabi_ddiv+0x548>
    16dc:	4288      	cmp	r0, r1
    16de:	d800      	bhi.n	16e2 <__aeabi_ddiv+0x33e>
    16e0:	e104      	b.n	18ec <__aeabi_ddiv+0x548>
    16e2:	3d02      	subs	r5, #2
    16e4:	4441      	add	r1, r8
    16e6:	9b04      	ldr	r3, [sp, #16]
    16e8:	1acb      	subs	r3, r1, r3
    16ea:	0018      	movs	r0, r3
    16ec:	0039      	movs	r1, r7
    16ee:	9304      	str	r3, [sp, #16]
    16f0:	f7fe ff82 	bl	5f8 <__udivsi3>
    16f4:	9b01      	ldr	r3, [sp, #4]
    16f6:	4682      	mov	sl, r0
    16f8:	4343      	muls	r3, r0
    16fa:	0039      	movs	r1, r7
    16fc:	9804      	ldr	r0, [sp, #16]
    16fe:	9301      	str	r3, [sp, #4]
    1700:	f7ff f800 	bl	704 <__aeabi_uidivmod>
    1704:	9801      	ldr	r0, [sp, #4]
    1706:	040b      	lsls	r3, r1, #16
    1708:	0431      	lsls	r1, r6, #16
    170a:	0c09      	lsrs	r1, r1, #16
    170c:	4319      	orrs	r1, r3
    170e:	4288      	cmp	r0, r1
    1710:	d90d      	bls.n	172e <__aeabi_ddiv+0x38a>
    1712:	4653      	mov	r3, sl
    1714:	4441      	add	r1, r8
    1716:	3b01      	subs	r3, #1
    1718:	4588      	cmp	r8, r1
    171a:	d900      	bls.n	171e <__aeabi_ddiv+0x37a>
    171c:	e0e8      	b.n	18f0 <__aeabi_ddiv+0x54c>
    171e:	4288      	cmp	r0, r1
    1720:	d800      	bhi.n	1724 <__aeabi_ddiv+0x380>
    1722:	e0e5      	b.n	18f0 <__aeabi_ddiv+0x54c>
    1724:	2302      	movs	r3, #2
    1726:	425b      	negs	r3, r3
    1728:	469c      	mov	ip, r3
    172a:	4441      	add	r1, r8
    172c:	44e2      	add	sl, ip
    172e:	9b01      	ldr	r3, [sp, #4]
    1730:	042d      	lsls	r5, r5, #16
    1732:	1ace      	subs	r6, r1, r3
    1734:	4651      	mov	r1, sl
    1736:	4329      	orrs	r1, r5
    1738:	9d05      	ldr	r5, [sp, #20]
    173a:	464f      	mov	r7, r9
    173c:	002a      	movs	r2, r5
    173e:	040b      	lsls	r3, r1, #16
    1740:	0c08      	lsrs	r0, r1, #16
    1742:	0c1b      	lsrs	r3, r3, #16
    1744:	435a      	muls	r2, r3
    1746:	4345      	muls	r5, r0
    1748:	437b      	muls	r3, r7
    174a:	4378      	muls	r0, r7
    174c:	195b      	adds	r3, r3, r5
    174e:	0c17      	lsrs	r7, r2, #16
    1750:	18fb      	adds	r3, r7, r3
    1752:	429d      	cmp	r5, r3
    1754:	d903      	bls.n	175e <__aeabi_ddiv+0x3ba>
    1756:	2580      	movs	r5, #128	; 0x80
    1758:	026d      	lsls	r5, r5, #9
    175a:	46ac      	mov	ip, r5
    175c:	4460      	add	r0, ip
    175e:	0c1d      	lsrs	r5, r3, #16
    1760:	0412      	lsls	r2, r2, #16
    1762:	041b      	lsls	r3, r3, #16
    1764:	0c12      	lsrs	r2, r2, #16
    1766:	1828      	adds	r0, r5, r0
    1768:	189b      	adds	r3, r3, r2
    176a:	4286      	cmp	r6, r0
    176c:	d200      	bcs.n	1770 <__aeabi_ddiv+0x3cc>
    176e:	e093      	b.n	1898 <__aeabi_ddiv+0x4f4>
    1770:	d100      	bne.n	1774 <__aeabi_ddiv+0x3d0>
    1772:	e08e      	b.n	1892 <__aeabi_ddiv+0x4ee>
    1774:	2301      	movs	r3, #1
    1776:	4319      	orrs	r1, r3
    1778:	4ba0      	ldr	r3, [pc, #640]	; (19fc <__aeabi_ddiv+0x658>)
    177a:	18e3      	adds	r3, r4, r3
    177c:	2b00      	cmp	r3, #0
    177e:	dc00      	bgt.n	1782 <__aeabi_ddiv+0x3de>
    1780:	e099      	b.n	18b6 <__aeabi_ddiv+0x512>
    1782:	074a      	lsls	r2, r1, #29
    1784:	d000      	beq.n	1788 <__aeabi_ddiv+0x3e4>
    1786:	e09e      	b.n	18c6 <__aeabi_ddiv+0x522>
    1788:	465a      	mov	r2, fp
    178a:	01d2      	lsls	r2, r2, #7
    178c:	d506      	bpl.n	179c <__aeabi_ddiv+0x3f8>
    178e:	465a      	mov	r2, fp
    1790:	4b9b      	ldr	r3, [pc, #620]	; (1a00 <__aeabi_ddiv+0x65c>)
    1792:	401a      	ands	r2, r3
    1794:	2380      	movs	r3, #128	; 0x80
    1796:	4693      	mov	fp, r2
    1798:	00db      	lsls	r3, r3, #3
    179a:	18e3      	adds	r3, r4, r3
    179c:	4a99      	ldr	r2, [pc, #612]	; (1a04 <__aeabi_ddiv+0x660>)
    179e:	4293      	cmp	r3, r2
    17a0:	dd68      	ble.n	1874 <__aeabi_ddiv+0x4d0>
    17a2:	2301      	movs	r3, #1
    17a4:	9a02      	ldr	r2, [sp, #8]
    17a6:	4c98      	ldr	r4, [pc, #608]	; (1a08 <__aeabi_ddiv+0x664>)
    17a8:	401a      	ands	r2, r3
    17aa:	2300      	movs	r3, #0
    17ac:	4694      	mov	ip, r2
    17ae:	4698      	mov	r8, r3
    17b0:	2200      	movs	r2, #0
    17b2:	e6c5      	b.n	1540 <__aeabi_ddiv+0x19c>
    17b4:	2280      	movs	r2, #128	; 0x80
    17b6:	464b      	mov	r3, r9
    17b8:	0312      	lsls	r2, r2, #12
    17ba:	4213      	tst	r3, r2
    17bc:	d00a      	beq.n	17d4 <__aeabi_ddiv+0x430>
    17be:	465b      	mov	r3, fp
    17c0:	4213      	tst	r3, r2
    17c2:	d106      	bne.n	17d2 <__aeabi_ddiv+0x42e>
    17c4:	431a      	orrs	r2, r3
    17c6:	0312      	lsls	r2, r2, #12
    17c8:	0b12      	lsrs	r2, r2, #12
    17ca:	46ac      	mov	ip, r5
    17cc:	4688      	mov	r8, r1
    17ce:	4c8e      	ldr	r4, [pc, #568]	; (1a08 <__aeabi_ddiv+0x664>)
    17d0:	e6b6      	b.n	1540 <__aeabi_ddiv+0x19c>
    17d2:	464b      	mov	r3, r9
    17d4:	431a      	orrs	r2, r3
    17d6:	0312      	lsls	r2, r2, #12
    17d8:	0b12      	lsrs	r2, r2, #12
    17da:	46bc      	mov	ip, r7
    17dc:	4c8a      	ldr	r4, [pc, #552]	; (1a08 <__aeabi_ddiv+0x664>)
    17de:	e6af      	b.n	1540 <__aeabi_ddiv+0x19c>
    17e0:	0003      	movs	r3, r0
    17e2:	465a      	mov	r2, fp
    17e4:	3b28      	subs	r3, #40	; 0x28
    17e6:	409a      	lsls	r2, r3
    17e8:	2300      	movs	r3, #0
    17ea:	4691      	mov	r9, r2
    17ec:	4698      	mov	r8, r3
    17ee:	e657      	b.n	14a0 <__aeabi_ddiv+0xfc>
    17f0:	4658      	mov	r0, fp
    17f2:	f000 ffb7 	bl	2764 <__clzsi2>
    17f6:	3020      	adds	r0, #32
    17f8:	e640      	b.n	147c <__aeabi_ddiv+0xd8>
    17fa:	0003      	movs	r3, r0
    17fc:	4652      	mov	r2, sl
    17fe:	3b28      	subs	r3, #40	; 0x28
    1800:	409a      	lsls	r2, r3
    1802:	2100      	movs	r1, #0
    1804:	4693      	mov	fp, r2
    1806:	e677      	b.n	14f8 <__aeabi_ddiv+0x154>
    1808:	f000 ffac 	bl	2764 <__clzsi2>
    180c:	3020      	adds	r0, #32
    180e:	e65f      	b.n	14d0 <__aeabi_ddiv+0x12c>
    1810:	4588      	cmp	r8, r1
    1812:	d200      	bcs.n	1816 <__aeabi_ddiv+0x472>
    1814:	e6c7      	b.n	15a6 <__aeabi_ddiv+0x202>
    1816:	464b      	mov	r3, r9
    1818:	07de      	lsls	r6, r3, #31
    181a:	085d      	lsrs	r5, r3, #1
    181c:	4643      	mov	r3, r8
    181e:	085b      	lsrs	r3, r3, #1
    1820:	431e      	orrs	r6, r3
    1822:	4643      	mov	r3, r8
    1824:	07db      	lsls	r3, r3, #31
    1826:	469a      	mov	sl, r3
    1828:	e6c2      	b.n	15b0 <__aeabi_ddiv+0x20c>
    182a:	2500      	movs	r5, #0
    182c:	4592      	cmp	sl, r2
    182e:	d300      	bcc.n	1832 <__aeabi_ddiv+0x48e>
    1830:	e733      	b.n	169a <__aeabi_ddiv+0x2f6>
    1832:	9e03      	ldr	r6, [sp, #12]
    1834:	4659      	mov	r1, fp
    1836:	46b4      	mov	ip, r6
    1838:	44e2      	add	sl, ip
    183a:	45b2      	cmp	sl, r6
    183c:	41ad      	sbcs	r5, r5
    183e:	426d      	negs	r5, r5
    1840:	4445      	add	r5, r8
    1842:	18eb      	adds	r3, r5, r3
    1844:	3901      	subs	r1, #1
    1846:	4598      	cmp	r8, r3
    1848:	d207      	bcs.n	185a <__aeabi_ddiv+0x4b6>
    184a:	4298      	cmp	r0, r3
    184c:	d900      	bls.n	1850 <__aeabi_ddiv+0x4ac>
    184e:	e07f      	b.n	1950 <__aeabi_ddiv+0x5ac>
    1850:	d100      	bne.n	1854 <__aeabi_ddiv+0x4b0>
    1852:	e0bc      	b.n	19ce <__aeabi_ddiv+0x62a>
    1854:	1a1d      	subs	r5, r3, r0
    1856:	468b      	mov	fp, r1
    1858:	e71f      	b.n	169a <__aeabi_ddiv+0x2f6>
    185a:	4598      	cmp	r8, r3
    185c:	d1fa      	bne.n	1854 <__aeabi_ddiv+0x4b0>
    185e:	9d03      	ldr	r5, [sp, #12]
    1860:	4555      	cmp	r5, sl
    1862:	d9f2      	bls.n	184a <__aeabi_ddiv+0x4a6>
    1864:	4643      	mov	r3, r8
    1866:	468b      	mov	fp, r1
    1868:	1a1d      	subs	r5, r3, r0
    186a:	e716      	b.n	169a <__aeabi_ddiv+0x2f6>
    186c:	469b      	mov	fp, r3
    186e:	e6ca      	b.n	1606 <__aeabi_ddiv+0x262>
    1870:	0015      	movs	r5, r2
    1872:	e6e7      	b.n	1644 <__aeabi_ddiv+0x2a0>
    1874:	465a      	mov	r2, fp
    1876:	08c9      	lsrs	r1, r1, #3
    1878:	0752      	lsls	r2, r2, #29
    187a:	430a      	orrs	r2, r1
    187c:	055b      	lsls	r3, r3, #21
    187e:	4690      	mov	r8, r2
    1880:	0d5c      	lsrs	r4, r3, #21
    1882:	465a      	mov	r2, fp
    1884:	2301      	movs	r3, #1
    1886:	9902      	ldr	r1, [sp, #8]
    1888:	0252      	lsls	r2, r2, #9
    188a:	4019      	ands	r1, r3
    188c:	0b12      	lsrs	r2, r2, #12
    188e:	468c      	mov	ip, r1
    1890:	e656      	b.n	1540 <__aeabi_ddiv+0x19c>
    1892:	2b00      	cmp	r3, #0
    1894:	d100      	bne.n	1898 <__aeabi_ddiv+0x4f4>
    1896:	e76f      	b.n	1778 <__aeabi_ddiv+0x3d4>
    1898:	4446      	add	r6, r8
    189a:	1e4a      	subs	r2, r1, #1
    189c:	45b0      	cmp	r8, r6
    189e:	d929      	bls.n	18f4 <__aeabi_ddiv+0x550>
    18a0:	0011      	movs	r1, r2
    18a2:	4286      	cmp	r6, r0
    18a4:	d000      	beq.n	18a8 <__aeabi_ddiv+0x504>
    18a6:	e765      	b.n	1774 <__aeabi_ddiv+0x3d0>
    18a8:	9a03      	ldr	r2, [sp, #12]
    18aa:	4293      	cmp	r3, r2
    18ac:	d000      	beq.n	18b0 <__aeabi_ddiv+0x50c>
    18ae:	e761      	b.n	1774 <__aeabi_ddiv+0x3d0>
    18b0:	e762      	b.n	1778 <__aeabi_ddiv+0x3d4>
    18b2:	2101      	movs	r1, #1
    18b4:	4249      	negs	r1, r1
    18b6:	2001      	movs	r0, #1
    18b8:	1ac2      	subs	r2, r0, r3
    18ba:	2a38      	cmp	r2, #56	; 0x38
    18bc:	dd21      	ble.n	1902 <__aeabi_ddiv+0x55e>
    18be:	9b02      	ldr	r3, [sp, #8]
    18c0:	4003      	ands	r3, r0
    18c2:	469c      	mov	ip, r3
    18c4:	e638      	b.n	1538 <__aeabi_ddiv+0x194>
    18c6:	220f      	movs	r2, #15
    18c8:	400a      	ands	r2, r1
    18ca:	2a04      	cmp	r2, #4
    18cc:	d100      	bne.n	18d0 <__aeabi_ddiv+0x52c>
    18ce:	e75b      	b.n	1788 <__aeabi_ddiv+0x3e4>
    18d0:	000a      	movs	r2, r1
    18d2:	1d11      	adds	r1, r2, #4
    18d4:	4291      	cmp	r1, r2
    18d6:	4192      	sbcs	r2, r2
    18d8:	4252      	negs	r2, r2
    18da:	4493      	add	fp, r2
    18dc:	e754      	b.n	1788 <__aeabi_ddiv+0x3e4>
    18de:	4b47      	ldr	r3, [pc, #284]	; (19fc <__aeabi_ddiv+0x658>)
    18e0:	18e3      	adds	r3, r4, r3
    18e2:	2b00      	cmp	r3, #0
    18e4:	dde5      	ble.n	18b2 <__aeabi_ddiv+0x50e>
    18e6:	2201      	movs	r2, #1
    18e8:	4252      	negs	r2, r2
    18ea:	e7f2      	b.n	18d2 <__aeabi_ddiv+0x52e>
    18ec:	001d      	movs	r5, r3
    18ee:	e6fa      	b.n	16e6 <__aeabi_ddiv+0x342>
    18f0:	469a      	mov	sl, r3
    18f2:	e71c      	b.n	172e <__aeabi_ddiv+0x38a>
    18f4:	42b0      	cmp	r0, r6
    18f6:	d839      	bhi.n	196c <__aeabi_ddiv+0x5c8>
    18f8:	d06e      	beq.n	19d8 <__aeabi_ddiv+0x634>
    18fa:	0011      	movs	r1, r2
    18fc:	e73a      	b.n	1774 <__aeabi_ddiv+0x3d0>
    18fe:	9302      	str	r3, [sp, #8]
    1900:	e73a      	b.n	1778 <__aeabi_ddiv+0x3d4>
    1902:	2a1f      	cmp	r2, #31
    1904:	dc3c      	bgt.n	1980 <__aeabi_ddiv+0x5dc>
    1906:	2320      	movs	r3, #32
    1908:	1a9b      	subs	r3, r3, r2
    190a:	000c      	movs	r4, r1
    190c:	4658      	mov	r0, fp
    190e:	4099      	lsls	r1, r3
    1910:	4098      	lsls	r0, r3
    1912:	1e4b      	subs	r3, r1, #1
    1914:	4199      	sbcs	r1, r3
    1916:	465b      	mov	r3, fp
    1918:	40d4      	lsrs	r4, r2
    191a:	40d3      	lsrs	r3, r2
    191c:	4320      	orrs	r0, r4
    191e:	4308      	orrs	r0, r1
    1920:	001a      	movs	r2, r3
    1922:	0743      	lsls	r3, r0, #29
    1924:	d009      	beq.n	193a <__aeabi_ddiv+0x596>
    1926:	230f      	movs	r3, #15
    1928:	4003      	ands	r3, r0
    192a:	2b04      	cmp	r3, #4
    192c:	d005      	beq.n	193a <__aeabi_ddiv+0x596>
    192e:	0001      	movs	r1, r0
    1930:	1d08      	adds	r0, r1, #4
    1932:	4288      	cmp	r0, r1
    1934:	419b      	sbcs	r3, r3
    1936:	425b      	negs	r3, r3
    1938:	18d2      	adds	r2, r2, r3
    193a:	0213      	lsls	r3, r2, #8
    193c:	d53a      	bpl.n	19b4 <__aeabi_ddiv+0x610>
    193e:	2301      	movs	r3, #1
    1940:	9a02      	ldr	r2, [sp, #8]
    1942:	2401      	movs	r4, #1
    1944:	401a      	ands	r2, r3
    1946:	2300      	movs	r3, #0
    1948:	4694      	mov	ip, r2
    194a:	4698      	mov	r8, r3
    194c:	2200      	movs	r2, #0
    194e:	e5f7      	b.n	1540 <__aeabi_ddiv+0x19c>
    1950:	2102      	movs	r1, #2
    1952:	4249      	negs	r1, r1
    1954:	468c      	mov	ip, r1
    1956:	9d03      	ldr	r5, [sp, #12]
    1958:	44e3      	add	fp, ip
    195a:	46ac      	mov	ip, r5
    195c:	44e2      	add	sl, ip
    195e:	45aa      	cmp	sl, r5
    1960:	41ad      	sbcs	r5, r5
    1962:	426d      	negs	r5, r5
    1964:	4445      	add	r5, r8
    1966:	18ed      	adds	r5, r5, r3
    1968:	1a2d      	subs	r5, r5, r0
    196a:	e696      	b.n	169a <__aeabi_ddiv+0x2f6>
    196c:	1e8a      	subs	r2, r1, #2
    196e:	9903      	ldr	r1, [sp, #12]
    1970:	004d      	lsls	r5, r1, #1
    1972:	428d      	cmp	r5, r1
    1974:	4189      	sbcs	r1, r1
    1976:	4249      	negs	r1, r1
    1978:	4441      	add	r1, r8
    197a:	1876      	adds	r6, r6, r1
    197c:	9503      	str	r5, [sp, #12]
    197e:	e78f      	b.n	18a0 <__aeabi_ddiv+0x4fc>
    1980:	201f      	movs	r0, #31
    1982:	4240      	negs	r0, r0
    1984:	1ac3      	subs	r3, r0, r3
    1986:	4658      	mov	r0, fp
    1988:	40d8      	lsrs	r0, r3
    198a:	0003      	movs	r3, r0
    198c:	2a20      	cmp	r2, #32
    198e:	d028      	beq.n	19e2 <__aeabi_ddiv+0x63e>
    1990:	2040      	movs	r0, #64	; 0x40
    1992:	465d      	mov	r5, fp
    1994:	1a82      	subs	r2, r0, r2
    1996:	4095      	lsls	r5, r2
    1998:	4329      	orrs	r1, r5
    199a:	1e4a      	subs	r2, r1, #1
    199c:	4191      	sbcs	r1, r2
    199e:	4319      	orrs	r1, r3
    19a0:	2307      	movs	r3, #7
    19a2:	2200      	movs	r2, #0
    19a4:	400b      	ands	r3, r1
    19a6:	d009      	beq.n	19bc <__aeabi_ddiv+0x618>
    19a8:	230f      	movs	r3, #15
    19aa:	2200      	movs	r2, #0
    19ac:	400b      	ands	r3, r1
    19ae:	0008      	movs	r0, r1
    19b0:	2b04      	cmp	r3, #4
    19b2:	d1bd      	bne.n	1930 <__aeabi_ddiv+0x58c>
    19b4:	0001      	movs	r1, r0
    19b6:	0753      	lsls	r3, r2, #29
    19b8:	0252      	lsls	r2, r2, #9
    19ba:	0b12      	lsrs	r2, r2, #12
    19bc:	08c9      	lsrs	r1, r1, #3
    19be:	4319      	orrs	r1, r3
    19c0:	2301      	movs	r3, #1
    19c2:	4688      	mov	r8, r1
    19c4:	9902      	ldr	r1, [sp, #8]
    19c6:	2400      	movs	r4, #0
    19c8:	4019      	ands	r1, r3
    19ca:	468c      	mov	ip, r1
    19cc:	e5b8      	b.n	1540 <__aeabi_ddiv+0x19c>
    19ce:	4552      	cmp	r2, sl
    19d0:	d8be      	bhi.n	1950 <__aeabi_ddiv+0x5ac>
    19d2:	468b      	mov	fp, r1
    19d4:	2500      	movs	r5, #0
    19d6:	e660      	b.n	169a <__aeabi_ddiv+0x2f6>
    19d8:	9d03      	ldr	r5, [sp, #12]
    19da:	429d      	cmp	r5, r3
    19dc:	d3c6      	bcc.n	196c <__aeabi_ddiv+0x5c8>
    19de:	0011      	movs	r1, r2
    19e0:	e762      	b.n	18a8 <__aeabi_ddiv+0x504>
    19e2:	2500      	movs	r5, #0
    19e4:	e7d8      	b.n	1998 <__aeabi_ddiv+0x5f4>
    19e6:	2280      	movs	r2, #128	; 0x80
    19e8:	465b      	mov	r3, fp
    19ea:	0312      	lsls	r2, r2, #12
    19ec:	431a      	orrs	r2, r3
    19ee:	9b01      	ldr	r3, [sp, #4]
    19f0:	0312      	lsls	r2, r2, #12
    19f2:	0b12      	lsrs	r2, r2, #12
    19f4:	469c      	mov	ip, r3
    19f6:	4688      	mov	r8, r1
    19f8:	4c03      	ldr	r4, [pc, #12]	; (1a08 <__aeabi_ddiv+0x664>)
    19fa:	e5a1      	b.n	1540 <__aeabi_ddiv+0x19c>
    19fc:	000003ff 	.word	0x000003ff
    1a00:	feffffff 	.word	0xfeffffff
    1a04:	000007fe 	.word	0x000007fe
    1a08:	000007ff 	.word	0x000007ff

00001a0c <__aeabi_dmul>:
    1a0c:	b5f0      	push	{r4, r5, r6, r7, lr}
    1a0e:	4657      	mov	r7, sl
    1a10:	4645      	mov	r5, r8
    1a12:	46de      	mov	lr, fp
    1a14:	464e      	mov	r6, r9
    1a16:	b5e0      	push	{r5, r6, r7, lr}
    1a18:	030c      	lsls	r4, r1, #12
    1a1a:	4698      	mov	r8, r3
    1a1c:	004e      	lsls	r6, r1, #1
    1a1e:	0b23      	lsrs	r3, r4, #12
    1a20:	b087      	sub	sp, #28
    1a22:	0007      	movs	r7, r0
    1a24:	4692      	mov	sl, r2
    1a26:	469b      	mov	fp, r3
    1a28:	0d76      	lsrs	r6, r6, #21
    1a2a:	0fcd      	lsrs	r5, r1, #31
    1a2c:	2e00      	cmp	r6, #0
    1a2e:	d06b      	beq.n	1b08 <__aeabi_dmul+0xfc>
    1a30:	4b6d      	ldr	r3, [pc, #436]	; (1be8 <__aeabi_dmul+0x1dc>)
    1a32:	429e      	cmp	r6, r3
    1a34:	d035      	beq.n	1aa2 <__aeabi_dmul+0x96>
    1a36:	2480      	movs	r4, #128	; 0x80
    1a38:	465b      	mov	r3, fp
    1a3a:	0f42      	lsrs	r2, r0, #29
    1a3c:	0424      	lsls	r4, r4, #16
    1a3e:	00db      	lsls	r3, r3, #3
    1a40:	4314      	orrs	r4, r2
    1a42:	431c      	orrs	r4, r3
    1a44:	00c3      	lsls	r3, r0, #3
    1a46:	4699      	mov	r9, r3
    1a48:	4b68      	ldr	r3, [pc, #416]	; (1bec <__aeabi_dmul+0x1e0>)
    1a4a:	46a3      	mov	fp, r4
    1a4c:	469c      	mov	ip, r3
    1a4e:	2300      	movs	r3, #0
    1a50:	2700      	movs	r7, #0
    1a52:	4466      	add	r6, ip
    1a54:	9302      	str	r3, [sp, #8]
    1a56:	4643      	mov	r3, r8
    1a58:	031c      	lsls	r4, r3, #12
    1a5a:	005a      	lsls	r2, r3, #1
    1a5c:	0fdb      	lsrs	r3, r3, #31
    1a5e:	4650      	mov	r0, sl
    1a60:	0b24      	lsrs	r4, r4, #12
    1a62:	0d52      	lsrs	r2, r2, #21
    1a64:	4698      	mov	r8, r3
    1a66:	d100      	bne.n	1a6a <__aeabi_dmul+0x5e>
    1a68:	e076      	b.n	1b58 <__aeabi_dmul+0x14c>
    1a6a:	4b5f      	ldr	r3, [pc, #380]	; (1be8 <__aeabi_dmul+0x1dc>)
    1a6c:	429a      	cmp	r2, r3
    1a6e:	d06d      	beq.n	1b4c <__aeabi_dmul+0x140>
    1a70:	2380      	movs	r3, #128	; 0x80
    1a72:	0f41      	lsrs	r1, r0, #29
    1a74:	041b      	lsls	r3, r3, #16
    1a76:	430b      	orrs	r3, r1
    1a78:	495c      	ldr	r1, [pc, #368]	; (1bec <__aeabi_dmul+0x1e0>)
    1a7a:	00e4      	lsls	r4, r4, #3
    1a7c:	468c      	mov	ip, r1
    1a7e:	431c      	orrs	r4, r3
    1a80:	00c3      	lsls	r3, r0, #3
    1a82:	2000      	movs	r0, #0
    1a84:	4462      	add	r2, ip
    1a86:	4641      	mov	r1, r8
    1a88:	18b6      	adds	r6, r6, r2
    1a8a:	4069      	eors	r1, r5
    1a8c:	1c72      	adds	r2, r6, #1
    1a8e:	9101      	str	r1, [sp, #4]
    1a90:	4694      	mov	ip, r2
    1a92:	4307      	orrs	r7, r0
    1a94:	2f0f      	cmp	r7, #15
    1a96:	d900      	bls.n	1a9a <__aeabi_dmul+0x8e>
    1a98:	e0b0      	b.n	1bfc <__aeabi_dmul+0x1f0>
    1a9a:	4a55      	ldr	r2, [pc, #340]	; (1bf0 <__aeabi_dmul+0x1e4>)
    1a9c:	00bf      	lsls	r7, r7, #2
    1a9e:	59d2      	ldr	r2, [r2, r7]
    1aa0:	4697      	mov	pc, r2
    1aa2:	465b      	mov	r3, fp
    1aa4:	4303      	orrs	r3, r0
    1aa6:	4699      	mov	r9, r3
    1aa8:	d000      	beq.n	1aac <__aeabi_dmul+0xa0>
    1aaa:	e087      	b.n	1bbc <__aeabi_dmul+0x1b0>
    1aac:	2300      	movs	r3, #0
    1aae:	469b      	mov	fp, r3
    1ab0:	3302      	adds	r3, #2
    1ab2:	2708      	movs	r7, #8
    1ab4:	9302      	str	r3, [sp, #8]
    1ab6:	e7ce      	b.n	1a56 <__aeabi_dmul+0x4a>
    1ab8:	4642      	mov	r2, r8
    1aba:	9201      	str	r2, [sp, #4]
    1abc:	2802      	cmp	r0, #2
    1abe:	d067      	beq.n	1b90 <__aeabi_dmul+0x184>
    1ac0:	2803      	cmp	r0, #3
    1ac2:	d100      	bne.n	1ac6 <__aeabi_dmul+0xba>
    1ac4:	e20e      	b.n	1ee4 <__aeabi_dmul+0x4d8>
    1ac6:	2801      	cmp	r0, #1
    1ac8:	d000      	beq.n	1acc <__aeabi_dmul+0xc0>
    1aca:	e162      	b.n	1d92 <__aeabi_dmul+0x386>
    1acc:	2300      	movs	r3, #0
    1ace:	2400      	movs	r4, #0
    1ad0:	2200      	movs	r2, #0
    1ad2:	4699      	mov	r9, r3
    1ad4:	9901      	ldr	r1, [sp, #4]
    1ad6:	4001      	ands	r1, r0
    1ad8:	b2cd      	uxtb	r5, r1
    1ada:	2100      	movs	r1, #0
    1adc:	0312      	lsls	r2, r2, #12
    1ade:	0d0b      	lsrs	r3, r1, #20
    1ae0:	0b12      	lsrs	r2, r2, #12
    1ae2:	051b      	lsls	r3, r3, #20
    1ae4:	4313      	orrs	r3, r2
    1ae6:	4a43      	ldr	r2, [pc, #268]	; (1bf4 <__aeabi_dmul+0x1e8>)
    1ae8:	0524      	lsls	r4, r4, #20
    1aea:	4013      	ands	r3, r2
    1aec:	431c      	orrs	r4, r3
    1aee:	0064      	lsls	r4, r4, #1
    1af0:	07ed      	lsls	r5, r5, #31
    1af2:	0864      	lsrs	r4, r4, #1
    1af4:	432c      	orrs	r4, r5
    1af6:	4648      	mov	r0, r9
    1af8:	0021      	movs	r1, r4
    1afa:	b007      	add	sp, #28
    1afc:	bc3c      	pop	{r2, r3, r4, r5}
    1afe:	4690      	mov	r8, r2
    1b00:	4699      	mov	r9, r3
    1b02:	46a2      	mov	sl, r4
    1b04:	46ab      	mov	fp, r5
    1b06:	bdf0      	pop	{r4, r5, r6, r7, pc}
    1b08:	4303      	orrs	r3, r0
    1b0a:	4699      	mov	r9, r3
    1b0c:	d04f      	beq.n	1bae <__aeabi_dmul+0x1a2>
    1b0e:	465b      	mov	r3, fp
    1b10:	2b00      	cmp	r3, #0
    1b12:	d100      	bne.n	1b16 <__aeabi_dmul+0x10a>
    1b14:	e189      	b.n	1e2a <__aeabi_dmul+0x41e>
    1b16:	4658      	mov	r0, fp
    1b18:	f000 fe24 	bl	2764 <__clzsi2>
    1b1c:	0003      	movs	r3, r0
    1b1e:	3b0b      	subs	r3, #11
    1b20:	2b1c      	cmp	r3, #28
    1b22:	dd00      	ble.n	1b26 <__aeabi_dmul+0x11a>
    1b24:	e17a      	b.n	1e1c <__aeabi_dmul+0x410>
    1b26:	221d      	movs	r2, #29
    1b28:	1ad3      	subs	r3, r2, r3
    1b2a:	003a      	movs	r2, r7
    1b2c:	0001      	movs	r1, r0
    1b2e:	465c      	mov	r4, fp
    1b30:	40da      	lsrs	r2, r3
    1b32:	3908      	subs	r1, #8
    1b34:	408c      	lsls	r4, r1
    1b36:	0013      	movs	r3, r2
    1b38:	408f      	lsls	r7, r1
    1b3a:	4323      	orrs	r3, r4
    1b3c:	469b      	mov	fp, r3
    1b3e:	46b9      	mov	r9, r7
    1b40:	2300      	movs	r3, #0
    1b42:	4e2d      	ldr	r6, [pc, #180]	; (1bf8 <__aeabi_dmul+0x1ec>)
    1b44:	2700      	movs	r7, #0
    1b46:	1a36      	subs	r6, r6, r0
    1b48:	9302      	str	r3, [sp, #8]
    1b4a:	e784      	b.n	1a56 <__aeabi_dmul+0x4a>
    1b4c:	4653      	mov	r3, sl
    1b4e:	4323      	orrs	r3, r4
    1b50:	d12a      	bne.n	1ba8 <__aeabi_dmul+0x19c>
    1b52:	2400      	movs	r4, #0
    1b54:	2002      	movs	r0, #2
    1b56:	e796      	b.n	1a86 <__aeabi_dmul+0x7a>
    1b58:	4653      	mov	r3, sl
    1b5a:	4323      	orrs	r3, r4
    1b5c:	d020      	beq.n	1ba0 <__aeabi_dmul+0x194>
    1b5e:	2c00      	cmp	r4, #0
    1b60:	d100      	bne.n	1b64 <__aeabi_dmul+0x158>
    1b62:	e157      	b.n	1e14 <__aeabi_dmul+0x408>
    1b64:	0020      	movs	r0, r4
    1b66:	f000 fdfd 	bl	2764 <__clzsi2>
    1b6a:	0003      	movs	r3, r0
    1b6c:	3b0b      	subs	r3, #11
    1b6e:	2b1c      	cmp	r3, #28
    1b70:	dd00      	ble.n	1b74 <__aeabi_dmul+0x168>
    1b72:	e149      	b.n	1e08 <__aeabi_dmul+0x3fc>
    1b74:	211d      	movs	r1, #29
    1b76:	1acb      	subs	r3, r1, r3
    1b78:	4651      	mov	r1, sl
    1b7a:	0002      	movs	r2, r0
    1b7c:	40d9      	lsrs	r1, r3
    1b7e:	4653      	mov	r3, sl
    1b80:	3a08      	subs	r2, #8
    1b82:	4094      	lsls	r4, r2
    1b84:	4093      	lsls	r3, r2
    1b86:	430c      	orrs	r4, r1
    1b88:	4a1b      	ldr	r2, [pc, #108]	; (1bf8 <__aeabi_dmul+0x1ec>)
    1b8a:	1a12      	subs	r2, r2, r0
    1b8c:	2000      	movs	r0, #0
    1b8e:	e77a      	b.n	1a86 <__aeabi_dmul+0x7a>
    1b90:	2501      	movs	r5, #1
    1b92:	9b01      	ldr	r3, [sp, #4]
    1b94:	4c14      	ldr	r4, [pc, #80]	; (1be8 <__aeabi_dmul+0x1dc>)
    1b96:	401d      	ands	r5, r3
    1b98:	2300      	movs	r3, #0
    1b9a:	2200      	movs	r2, #0
    1b9c:	4699      	mov	r9, r3
    1b9e:	e79c      	b.n	1ada <__aeabi_dmul+0xce>
    1ba0:	2400      	movs	r4, #0
    1ba2:	2200      	movs	r2, #0
    1ba4:	2001      	movs	r0, #1
    1ba6:	e76e      	b.n	1a86 <__aeabi_dmul+0x7a>
    1ba8:	4653      	mov	r3, sl
    1baa:	2003      	movs	r0, #3
    1bac:	e76b      	b.n	1a86 <__aeabi_dmul+0x7a>
    1bae:	2300      	movs	r3, #0
    1bb0:	469b      	mov	fp, r3
    1bb2:	3301      	adds	r3, #1
    1bb4:	2704      	movs	r7, #4
    1bb6:	2600      	movs	r6, #0
    1bb8:	9302      	str	r3, [sp, #8]
    1bba:	e74c      	b.n	1a56 <__aeabi_dmul+0x4a>
    1bbc:	2303      	movs	r3, #3
    1bbe:	4681      	mov	r9, r0
    1bc0:	270c      	movs	r7, #12
    1bc2:	9302      	str	r3, [sp, #8]
    1bc4:	e747      	b.n	1a56 <__aeabi_dmul+0x4a>
    1bc6:	2280      	movs	r2, #128	; 0x80
    1bc8:	2300      	movs	r3, #0
    1bca:	2500      	movs	r5, #0
    1bcc:	0312      	lsls	r2, r2, #12
    1bce:	4699      	mov	r9, r3
    1bd0:	4c05      	ldr	r4, [pc, #20]	; (1be8 <__aeabi_dmul+0x1dc>)
    1bd2:	e782      	b.n	1ada <__aeabi_dmul+0xce>
    1bd4:	465c      	mov	r4, fp
    1bd6:	464b      	mov	r3, r9
    1bd8:	9802      	ldr	r0, [sp, #8]
    1bda:	e76f      	b.n	1abc <__aeabi_dmul+0xb0>
    1bdc:	465c      	mov	r4, fp
    1bde:	464b      	mov	r3, r9
    1be0:	9501      	str	r5, [sp, #4]
    1be2:	9802      	ldr	r0, [sp, #8]
    1be4:	e76a      	b.n	1abc <__aeabi_dmul+0xb0>
    1be6:	46c0      	nop			; (mov r8, r8)
    1be8:	000007ff 	.word	0x000007ff
    1bec:	fffffc01 	.word	0xfffffc01
    1bf0:	000029b8 	.word	0x000029b8
    1bf4:	800fffff 	.word	0x800fffff
    1bf8:	fffffc0d 	.word	0xfffffc0d
    1bfc:	464a      	mov	r2, r9
    1bfe:	4649      	mov	r1, r9
    1c00:	0c17      	lsrs	r7, r2, #16
    1c02:	0c1a      	lsrs	r2, r3, #16
    1c04:	041b      	lsls	r3, r3, #16
    1c06:	0c1b      	lsrs	r3, r3, #16
    1c08:	0408      	lsls	r0, r1, #16
    1c0a:	0019      	movs	r1, r3
    1c0c:	0c00      	lsrs	r0, r0, #16
    1c0e:	4341      	muls	r1, r0
    1c10:	0015      	movs	r5, r2
    1c12:	4688      	mov	r8, r1
    1c14:	0019      	movs	r1, r3
    1c16:	437d      	muls	r5, r7
    1c18:	4379      	muls	r1, r7
    1c1a:	9503      	str	r5, [sp, #12]
    1c1c:	4689      	mov	r9, r1
    1c1e:	0029      	movs	r1, r5
    1c20:	0015      	movs	r5, r2
    1c22:	4345      	muls	r5, r0
    1c24:	444d      	add	r5, r9
    1c26:	9502      	str	r5, [sp, #8]
    1c28:	4645      	mov	r5, r8
    1c2a:	0c2d      	lsrs	r5, r5, #16
    1c2c:	46aa      	mov	sl, r5
    1c2e:	9d02      	ldr	r5, [sp, #8]
    1c30:	4455      	add	r5, sl
    1c32:	45a9      	cmp	r9, r5
    1c34:	d906      	bls.n	1c44 <__aeabi_dmul+0x238>
    1c36:	468a      	mov	sl, r1
    1c38:	2180      	movs	r1, #128	; 0x80
    1c3a:	0249      	lsls	r1, r1, #9
    1c3c:	4689      	mov	r9, r1
    1c3e:	44ca      	add	sl, r9
    1c40:	4651      	mov	r1, sl
    1c42:	9103      	str	r1, [sp, #12]
    1c44:	0c29      	lsrs	r1, r5, #16
    1c46:	9104      	str	r1, [sp, #16]
    1c48:	4641      	mov	r1, r8
    1c4a:	0409      	lsls	r1, r1, #16
    1c4c:	042d      	lsls	r5, r5, #16
    1c4e:	0c09      	lsrs	r1, r1, #16
    1c50:	4688      	mov	r8, r1
    1c52:	0029      	movs	r1, r5
    1c54:	0c25      	lsrs	r5, r4, #16
    1c56:	0424      	lsls	r4, r4, #16
    1c58:	4441      	add	r1, r8
    1c5a:	0c24      	lsrs	r4, r4, #16
    1c5c:	9105      	str	r1, [sp, #20]
    1c5e:	0021      	movs	r1, r4
    1c60:	4341      	muls	r1, r0
    1c62:	4688      	mov	r8, r1
    1c64:	0021      	movs	r1, r4
    1c66:	4379      	muls	r1, r7
    1c68:	468a      	mov	sl, r1
    1c6a:	4368      	muls	r0, r5
    1c6c:	4641      	mov	r1, r8
    1c6e:	4450      	add	r0, sl
    1c70:	4681      	mov	r9, r0
    1c72:	0c08      	lsrs	r0, r1, #16
    1c74:	4448      	add	r0, r9
    1c76:	436f      	muls	r7, r5
    1c78:	4582      	cmp	sl, r0
    1c7a:	d903      	bls.n	1c84 <__aeabi_dmul+0x278>
    1c7c:	2180      	movs	r1, #128	; 0x80
    1c7e:	0249      	lsls	r1, r1, #9
    1c80:	4689      	mov	r9, r1
    1c82:	444f      	add	r7, r9
    1c84:	0c01      	lsrs	r1, r0, #16
    1c86:	4689      	mov	r9, r1
    1c88:	0039      	movs	r1, r7
    1c8a:	4449      	add	r1, r9
    1c8c:	9102      	str	r1, [sp, #8]
    1c8e:	4641      	mov	r1, r8
    1c90:	040f      	lsls	r7, r1, #16
    1c92:	9904      	ldr	r1, [sp, #16]
    1c94:	0c3f      	lsrs	r7, r7, #16
    1c96:	4688      	mov	r8, r1
    1c98:	0400      	lsls	r0, r0, #16
    1c9a:	19c0      	adds	r0, r0, r7
    1c9c:	4480      	add	r8, r0
    1c9e:	4641      	mov	r1, r8
    1ca0:	9104      	str	r1, [sp, #16]
    1ca2:	4659      	mov	r1, fp
    1ca4:	0c0f      	lsrs	r7, r1, #16
    1ca6:	0409      	lsls	r1, r1, #16
    1ca8:	0c09      	lsrs	r1, r1, #16
    1caa:	4688      	mov	r8, r1
    1cac:	4359      	muls	r1, r3
    1cae:	468a      	mov	sl, r1
    1cb0:	0039      	movs	r1, r7
    1cb2:	4351      	muls	r1, r2
    1cb4:	4689      	mov	r9, r1
    1cb6:	4641      	mov	r1, r8
    1cb8:	434a      	muls	r2, r1
    1cba:	4651      	mov	r1, sl
    1cbc:	0c09      	lsrs	r1, r1, #16
    1cbe:	468b      	mov	fp, r1
    1cc0:	437b      	muls	r3, r7
    1cc2:	18d2      	adds	r2, r2, r3
    1cc4:	445a      	add	r2, fp
    1cc6:	4293      	cmp	r3, r2
    1cc8:	d903      	bls.n	1cd2 <__aeabi_dmul+0x2c6>
    1cca:	2380      	movs	r3, #128	; 0x80
    1ccc:	025b      	lsls	r3, r3, #9
    1cce:	469b      	mov	fp, r3
    1cd0:	44d9      	add	r9, fp
    1cd2:	4651      	mov	r1, sl
    1cd4:	0409      	lsls	r1, r1, #16
    1cd6:	0c09      	lsrs	r1, r1, #16
    1cd8:	468a      	mov	sl, r1
    1cda:	4641      	mov	r1, r8
    1cdc:	4361      	muls	r1, r4
    1cde:	437c      	muls	r4, r7
    1ce0:	0c13      	lsrs	r3, r2, #16
    1ce2:	0412      	lsls	r2, r2, #16
    1ce4:	444b      	add	r3, r9
    1ce6:	4452      	add	r2, sl
    1ce8:	46a1      	mov	r9, r4
    1cea:	468a      	mov	sl, r1
    1cec:	003c      	movs	r4, r7
    1cee:	4641      	mov	r1, r8
    1cf0:	436c      	muls	r4, r5
    1cf2:	434d      	muls	r5, r1
    1cf4:	4651      	mov	r1, sl
    1cf6:	444d      	add	r5, r9
    1cf8:	0c0f      	lsrs	r7, r1, #16
    1cfa:	197d      	adds	r5, r7, r5
    1cfc:	45a9      	cmp	r9, r5
    1cfe:	d903      	bls.n	1d08 <__aeabi_dmul+0x2fc>
    1d00:	2180      	movs	r1, #128	; 0x80
    1d02:	0249      	lsls	r1, r1, #9
    1d04:	4688      	mov	r8, r1
    1d06:	4444      	add	r4, r8
    1d08:	9f04      	ldr	r7, [sp, #16]
    1d0a:	9903      	ldr	r1, [sp, #12]
    1d0c:	46b8      	mov	r8, r7
    1d0e:	4441      	add	r1, r8
    1d10:	468b      	mov	fp, r1
    1d12:	4583      	cmp	fp, r0
    1d14:	4180      	sbcs	r0, r0
    1d16:	4241      	negs	r1, r0
    1d18:	4688      	mov	r8, r1
    1d1a:	4651      	mov	r1, sl
    1d1c:	0408      	lsls	r0, r1, #16
    1d1e:	042f      	lsls	r7, r5, #16
    1d20:	0c00      	lsrs	r0, r0, #16
    1d22:	183f      	adds	r7, r7, r0
    1d24:	4658      	mov	r0, fp
    1d26:	9902      	ldr	r1, [sp, #8]
    1d28:	1810      	adds	r0, r2, r0
    1d2a:	4689      	mov	r9, r1
    1d2c:	4290      	cmp	r0, r2
    1d2e:	4192      	sbcs	r2, r2
    1d30:	444f      	add	r7, r9
    1d32:	46ba      	mov	sl, r7
    1d34:	4252      	negs	r2, r2
    1d36:	4699      	mov	r9, r3
    1d38:	4693      	mov	fp, r2
    1d3a:	44c2      	add	sl, r8
    1d3c:	44d1      	add	r9, sl
    1d3e:	44cb      	add	fp, r9
    1d40:	428f      	cmp	r7, r1
    1d42:	41bf      	sbcs	r7, r7
    1d44:	45c2      	cmp	sl, r8
    1d46:	4189      	sbcs	r1, r1
    1d48:	4599      	cmp	r9, r3
    1d4a:	419b      	sbcs	r3, r3
    1d4c:	4593      	cmp	fp, r2
    1d4e:	4192      	sbcs	r2, r2
    1d50:	427f      	negs	r7, r7
    1d52:	4249      	negs	r1, r1
    1d54:	0c2d      	lsrs	r5, r5, #16
    1d56:	4252      	negs	r2, r2
    1d58:	430f      	orrs	r7, r1
    1d5a:	425b      	negs	r3, r3
    1d5c:	4313      	orrs	r3, r2
    1d5e:	197f      	adds	r7, r7, r5
    1d60:	18ff      	adds	r7, r7, r3
    1d62:	465b      	mov	r3, fp
    1d64:	193c      	adds	r4, r7, r4
    1d66:	0ddb      	lsrs	r3, r3, #23
    1d68:	9a05      	ldr	r2, [sp, #20]
    1d6a:	0264      	lsls	r4, r4, #9
    1d6c:	431c      	orrs	r4, r3
    1d6e:	0243      	lsls	r3, r0, #9
    1d70:	4313      	orrs	r3, r2
    1d72:	1e5d      	subs	r5, r3, #1
    1d74:	41ab      	sbcs	r3, r5
    1d76:	465a      	mov	r2, fp
    1d78:	0dc0      	lsrs	r0, r0, #23
    1d7a:	4303      	orrs	r3, r0
    1d7c:	0252      	lsls	r2, r2, #9
    1d7e:	4313      	orrs	r3, r2
    1d80:	01e2      	lsls	r2, r4, #7
    1d82:	d556      	bpl.n	1e32 <__aeabi_dmul+0x426>
    1d84:	2001      	movs	r0, #1
    1d86:	085a      	lsrs	r2, r3, #1
    1d88:	4003      	ands	r3, r0
    1d8a:	4313      	orrs	r3, r2
    1d8c:	07e2      	lsls	r2, r4, #31
    1d8e:	4313      	orrs	r3, r2
    1d90:	0864      	lsrs	r4, r4, #1
    1d92:	485a      	ldr	r0, [pc, #360]	; (1efc <__aeabi_dmul+0x4f0>)
    1d94:	4460      	add	r0, ip
    1d96:	2800      	cmp	r0, #0
    1d98:	dd4d      	ble.n	1e36 <__aeabi_dmul+0x42a>
    1d9a:	075a      	lsls	r2, r3, #29
    1d9c:	d009      	beq.n	1db2 <__aeabi_dmul+0x3a6>
    1d9e:	220f      	movs	r2, #15
    1da0:	401a      	ands	r2, r3
    1da2:	2a04      	cmp	r2, #4
    1da4:	d005      	beq.n	1db2 <__aeabi_dmul+0x3a6>
    1da6:	1d1a      	adds	r2, r3, #4
    1da8:	429a      	cmp	r2, r3
    1daa:	419b      	sbcs	r3, r3
    1dac:	425b      	negs	r3, r3
    1dae:	18e4      	adds	r4, r4, r3
    1db0:	0013      	movs	r3, r2
    1db2:	01e2      	lsls	r2, r4, #7
    1db4:	d504      	bpl.n	1dc0 <__aeabi_dmul+0x3b4>
    1db6:	2080      	movs	r0, #128	; 0x80
    1db8:	4a51      	ldr	r2, [pc, #324]	; (1f00 <__aeabi_dmul+0x4f4>)
    1dba:	00c0      	lsls	r0, r0, #3
    1dbc:	4014      	ands	r4, r2
    1dbe:	4460      	add	r0, ip
    1dc0:	4a50      	ldr	r2, [pc, #320]	; (1f04 <__aeabi_dmul+0x4f8>)
    1dc2:	4290      	cmp	r0, r2
    1dc4:	dd00      	ble.n	1dc8 <__aeabi_dmul+0x3bc>
    1dc6:	e6e3      	b.n	1b90 <__aeabi_dmul+0x184>
    1dc8:	2501      	movs	r5, #1
    1dca:	08db      	lsrs	r3, r3, #3
    1dcc:	0762      	lsls	r2, r4, #29
    1dce:	431a      	orrs	r2, r3
    1dd0:	0264      	lsls	r4, r4, #9
    1dd2:	9b01      	ldr	r3, [sp, #4]
    1dd4:	4691      	mov	r9, r2
    1dd6:	0b22      	lsrs	r2, r4, #12
    1dd8:	0544      	lsls	r4, r0, #21
    1dda:	0d64      	lsrs	r4, r4, #21
    1ddc:	401d      	ands	r5, r3
    1dde:	e67c      	b.n	1ada <__aeabi_dmul+0xce>
    1de0:	2280      	movs	r2, #128	; 0x80
    1de2:	4659      	mov	r1, fp
    1de4:	0312      	lsls	r2, r2, #12
    1de6:	4211      	tst	r1, r2
    1de8:	d008      	beq.n	1dfc <__aeabi_dmul+0x3f0>
    1dea:	4214      	tst	r4, r2
    1dec:	d106      	bne.n	1dfc <__aeabi_dmul+0x3f0>
    1dee:	4322      	orrs	r2, r4
    1df0:	0312      	lsls	r2, r2, #12
    1df2:	0b12      	lsrs	r2, r2, #12
    1df4:	4645      	mov	r5, r8
    1df6:	4699      	mov	r9, r3
    1df8:	4c43      	ldr	r4, [pc, #268]	; (1f08 <__aeabi_dmul+0x4fc>)
    1dfa:	e66e      	b.n	1ada <__aeabi_dmul+0xce>
    1dfc:	465b      	mov	r3, fp
    1dfe:	431a      	orrs	r2, r3
    1e00:	0312      	lsls	r2, r2, #12
    1e02:	0b12      	lsrs	r2, r2, #12
    1e04:	4c40      	ldr	r4, [pc, #256]	; (1f08 <__aeabi_dmul+0x4fc>)
    1e06:	e668      	b.n	1ada <__aeabi_dmul+0xce>
    1e08:	0003      	movs	r3, r0
    1e0a:	4654      	mov	r4, sl
    1e0c:	3b28      	subs	r3, #40	; 0x28
    1e0e:	409c      	lsls	r4, r3
    1e10:	2300      	movs	r3, #0
    1e12:	e6b9      	b.n	1b88 <__aeabi_dmul+0x17c>
    1e14:	f000 fca6 	bl	2764 <__clzsi2>
    1e18:	3020      	adds	r0, #32
    1e1a:	e6a6      	b.n	1b6a <__aeabi_dmul+0x15e>
    1e1c:	0003      	movs	r3, r0
    1e1e:	3b28      	subs	r3, #40	; 0x28
    1e20:	409f      	lsls	r7, r3
    1e22:	2300      	movs	r3, #0
    1e24:	46bb      	mov	fp, r7
    1e26:	4699      	mov	r9, r3
    1e28:	e68a      	b.n	1b40 <__aeabi_dmul+0x134>
    1e2a:	f000 fc9b 	bl	2764 <__clzsi2>
    1e2e:	3020      	adds	r0, #32
    1e30:	e674      	b.n	1b1c <__aeabi_dmul+0x110>
    1e32:	46b4      	mov	ip, r6
    1e34:	e7ad      	b.n	1d92 <__aeabi_dmul+0x386>
    1e36:	2501      	movs	r5, #1
    1e38:	1a2a      	subs	r2, r5, r0
    1e3a:	2a38      	cmp	r2, #56	; 0x38
    1e3c:	dd06      	ble.n	1e4c <__aeabi_dmul+0x440>
    1e3e:	9b01      	ldr	r3, [sp, #4]
    1e40:	2400      	movs	r4, #0
    1e42:	401d      	ands	r5, r3
    1e44:	2300      	movs	r3, #0
    1e46:	2200      	movs	r2, #0
    1e48:	4699      	mov	r9, r3
    1e4a:	e646      	b.n	1ada <__aeabi_dmul+0xce>
    1e4c:	2a1f      	cmp	r2, #31
    1e4e:	dc21      	bgt.n	1e94 <__aeabi_dmul+0x488>
    1e50:	2520      	movs	r5, #32
    1e52:	0020      	movs	r0, r4
    1e54:	1aad      	subs	r5, r5, r2
    1e56:	001e      	movs	r6, r3
    1e58:	40ab      	lsls	r3, r5
    1e5a:	40a8      	lsls	r0, r5
    1e5c:	40d6      	lsrs	r6, r2
    1e5e:	1e5d      	subs	r5, r3, #1
    1e60:	41ab      	sbcs	r3, r5
    1e62:	4330      	orrs	r0, r6
    1e64:	4318      	orrs	r0, r3
    1e66:	40d4      	lsrs	r4, r2
    1e68:	0743      	lsls	r3, r0, #29
    1e6a:	d009      	beq.n	1e80 <__aeabi_dmul+0x474>
    1e6c:	230f      	movs	r3, #15
    1e6e:	4003      	ands	r3, r0
    1e70:	2b04      	cmp	r3, #4
    1e72:	d005      	beq.n	1e80 <__aeabi_dmul+0x474>
    1e74:	0003      	movs	r3, r0
    1e76:	1d18      	adds	r0, r3, #4
    1e78:	4298      	cmp	r0, r3
    1e7a:	419b      	sbcs	r3, r3
    1e7c:	425b      	negs	r3, r3
    1e7e:	18e4      	adds	r4, r4, r3
    1e80:	0223      	lsls	r3, r4, #8
    1e82:	d521      	bpl.n	1ec8 <__aeabi_dmul+0x4bc>
    1e84:	2501      	movs	r5, #1
    1e86:	9b01      	ldr	r3, [sp, #4]
    1e88:	2401      	movs	r4, #1
    1e8a:	401d      	ands	r5, r3
    1e8c:	2300      	movs	r3, #0
    1e8e:	2200      	movs	r2, #0
    1e90:	4699      	mov	r9, r3
    1e92:	e622      	b.n	1ada <__aeabi_dmul+0xce>
    1e94:	251f      	movs	r5, #31
    1e96:	0021      	movs	r1, r4
    1e98:	426d      	negs	r5, r5
    1e9a:	1a28      	subs	r0, r5, r0
    1e9c:	40c1      	lsrs	r1, r0
    1e9e:	0008      	movs	r0, r1
    1ea0:	2a20      	cmp	r2, #32
    1ea2:	d01d      	beq.n	1ee0 <__aeabi_dmul+0x4d4>
    1ea4:	355f      	adds	r5, #95	; 0x5f
    1ea6:	1aaa      	subs	r2, r5, r2
    1ea8:	4094      	lsls	r4, r2
    1eaa:	4323      	orrs	r3, r4
    1eac:	1e5c      	subs	r4, r3, #1
    1eae:	41a3      	sbcs	r3, r4
    1eb0:	2507      	movs	r5, #7
    1eb2:	4303      	orrs	r3, r0
    1eb4:	401d      	ands	r5, r3
    1eb6:	2200      	movs	r2, #0
    1eb8:	2d00      	cmp	r5, #0
    1eba:	d009      	beq.n	1ed0 <__aeabi_dmul+0x4c4>
    1ebc:	220f      	movs	r2, #15
    1ebe:	2400      	movs	r4, #0
    1ec0:	401a      	ands	r2, r3
    1ec2:	0018      	movs	r0, r3
    1ec4:	2a04      	cmp	r2, #4
    1ec6:	d1d6      	bne.n	1e76 <__aeabi_dmul+0x46a>
    1ec8:	0003      	movs	r3, r0
    1eca:	0765      	lsls	r5, r4, #29
    1ecc:	0264      	lsls	r4, r4, #9
    1ece:	0b22      	lsrs	r2, r4, #12
    1ed0:	08db      	lsrs	r3, r3, #3
    1ed2:	432b      	orrs	r3, r5
    1ed4:	2501      	movs	r5, #1
    1ed6:	4699      	mov	r9, r3
    1ed8:	9b01      	ldr	r3, [sp, #4]
    1eda:	2400      	movs	r4, #0
    1edc:	401d      	ands	r5, r3
    1ede:	e5fc      	b.n	1ada <__aeabi_dmul+0xce>
    1ee0:	2400      	movs	r4, #0
    1ee2:	e7e2      	b.n	1eaa <__aeabi_dmul+0x49e>
    1ee4:	2280      	movs	r2, #128	; 0x80
    1ee6:	2501      	movs	r5, #1
    1ee8:	0312      	lsls	r2, r2, #12
    1eea:	4322      	orrs	r2, r4
    1eec:	9901      	ldr	r1, [sp, #4]
    1eee:	0312      	lsls	r2, r2, #12
    1ef0:	0b12      	lsrs	r2, r2, #12
    1ef2:	400d      	ands	r5, r1
    1ef4:	4699      	mov	r9, r3
    1ef6:	4c04      	ldr	r4, [pc, #16]	; (1f08 <__aeabi_dmul+0x4fc>)
    1ef8:	e5ef      	b.n	1ada <__aeabi_dmul+0xce>
    1efa:	46c0      	nop			; (mov r8, r8)
    1efc:	000003ff 	.word	0x000003ff
    1f00:	feffffff 	.word	0xfeffffff
    1f04:	000007fe 	.word	0x000007fe
    1f08:	000007ff 	.word	0x000007ff

00001f0c <__aeabi_dsub>:
    1f0c:	b5f0      	push	{r4, r5, r6, r7, lr}
    1f0e:	4646      	mov	r6, r8
    1f10:	46d6      	mov	lr, sl
    1f12:	464f      	mov	r7, r9
    1f14:	030c      	lsls	r4, r1, #12
    1f16:	b5c0      	push	{r6, r7, lr}
    1f18:	0fcd      	lsrs	r5, r1, #31
    1f1a:	004e      	lsls	r6, r1, #1
    1f1c:	0a61      	lsrs	r1, r4, #9
    1f1e:	0f44      	lsrs	r4, r0, #29
    1f20:	430c      	orrs	r4, r1
    1f22:	00c1      	lsls	r1, r0, #3
    1f24:	0058      	lsls	r0, r3, #1
    1f26:	0d40      	lsrs	r0, r0, #21
    1f28:	4684      	mov	ip, r0
    1f2a:	468a      	mov	sl, r1
    1f2c:	000f      	movs	r7, r1
    1f2e:	0319      	lsls	r1, r3, #12
    1f30:	0f50      	lsrs	r0, r2, #29
    1f32:	0a49      	lsrs	r1, r1, #9
    1f34:	4301      	orrs	r1, r0
    1f36:	48c6      	ldr	r0, [pc, #792]	; (2250 <STACK_SIZE+0x250>)
    1f38:	0d76      	lsrs	r6, r6, #21
    1f3a:	46a8      	mov	r8, r5
    1f3c:	0fdb      	lsrs	r3, r3, #31
    1f3e:	00d2      	lsls	r2, r2, #3
    1f40:	4584      	cmp	ip, r0
    1f42:	d100      	bne.n	1f46 <__aeabi_dsub+0x3a>
    1f44:	e0d8      	b.n	20f8 <STACK_SIZE+0xf8>
    1f46:	2001      	movs	r0, #1
    1f48:	4043      	eors	r3, r0
    1f4a:	42ab      	cmp	r3, r5
    1f4c:	d100      	bne.n	1f50 <__aeabi_dsub+0x44>
    1f4e:	e0a6      	b.n	209e <STACK_SIZE+0x9e>
    1f50:	4660      	mov	r0, ip
    1f52:	1a35      	subs	r5, r6, r0
    1f54:	2d00      	cmp	r5, #0
    1f56:	dc00      	bgt.n	1f5a <__aeabi_dsub+0x4e>
    1f58:	e105      	b.n	2166 <STACK_SIZE+0x166>
    1f5a:	2800      	cmp	r0, #0
    1f5c:	d110      	bne.n	1f80 <__aeabi_dsub+0x74>
    1f5e:	000b      	movs	r3, r1
    1f60:	4313      	orrs	r3, r2
    1f62:	d100      	bne.n	1f66 <__aeabi_dsub+0x5a>
    1f64:	e0d7      	b.n	2116 <STACK_SIZE+0x116>
    1f66:	1e6b      	subs	r3, r5, #1
    1f68:	2b00      	cmp	r3, #0
    1f6a:	d000      	beq.n	1f6e <__aeabi_dsub+0x62>
    1f6c:	e14b      	b.n	2206 <STACK_SIZE+0x206>
    1f6e:	4653      	mov	r3, sl
    1f70:	1a9f      	subs	r7, r3, r2
    1f72:	45ba      	cmp	sl, r7
    1f74:	4180      	sbcs	r0, r0
    1f76:	1a64      	subs	r4, r4, r1
    1f78:	4240      	negs	r0, r0
    1f7a:	1a24      	subs	r4, r4, r0
    1f7c:	2601      	movs	r6, #1
    1f7e:	e01e      	b.n	1fbe <__aeabi_dsub+0xb2>
    1f80:	4bb3      	ldr	r3, [pc, #716]	; (2250 <STACK_SIZE+0x250>)
    1f82:	429e      	cmp	r6, r3
    1f84:	d048      	beq.n	2018 <STACK_SIZE+0x18>
    1f86:	2380      	movs	r3, #128	; 0x80
    1f88:	041b      	lsls	r3, r3, #16
    1f8a:	4319      	orrs	r1, r3
    1f8c:	2d38      	cmp	r5, #56	; 0x38
    1f8e:	dd00      	ble.n	1f92 <__aeabi_dsub+0x86>
    1f90:	e119      	b.n	21c6 <STACK_SIZE+0x1c6>
    1f92:	2d1f      	cmp	r5, #31
    1f94:	dd00      	ble.n	1f98 <__aeabi_dsub+0x8c>
    1f96:	e14c      	b.n	2232 <STACK_SIZE+0x232>
    1f98:	2320      	movs	r3, #32
    1f9a:	000f      	movs	r7, r1
    1f9c:	1b5b      	subs	r3, r3, r5
    1f9e:	0010      	movs	r0, r2
    1fa0:	409a      	lsls	r2, r3
    1fa2:	409f      	lsls	r7, r3
    1fa4:	40e8      	lsrs	r0, r5
    1fa6:	1e53      	subs	r3, r2, #1
    1fa8:	419a      	sbcs	r2, r3
    1faa:	40e9      	lsrs	r1, r5
    1fac:	4307      	orrs	r7, r0
    1fae:	4317      	orrs	r7, r2
    1fb0:	4653      	mov	r3, sl
    1fb2:	1bdf      	subs	r7, r3, r7
    1fb4:	1a61      	subs	r1, r4, r1
    1fb6:	45ba      	cmp	sl, r7
    1fb8:	41a4      	sbcs	r4, r4
    1fba:	4264      	negs	r4, r4
    1fbc:	1b0c      	subs	r4, r1, r4
    1fbe:	0223      	lsls	r3, r4, #8
    1fc0:	d400      	bmi.n	1fc4 <__aeabi_dsub+0xb8>
    1fc2:	e0c5      	b.n	2150 <STACK_SIZE+0x150>
    1fc4:	0264      	lsls	r4, r4, #9
    1fc6:	0a65      	lsrs	r5, r4, #9
    1fc8:	2d00      	cmp	r5, #0
    1fca:	d100      	bne.n	1fce <__aeabi_dsub+0xc2>
    1fcc:	e0f6      	b.n	21bc <STACK_SIZE+0x1bc>
    1fce:	0028      	movs	r0, r5
    1fd0:	f000 fbc8 	bl	2764 <__clzsi2>
    1fd4:	0003      	movs	r3, r0
    1fd6:	3b08      	subs	r3, #8
    1fd8:	2b1f      	cmp	r3, #31
    1fda:	dd00      	ble.n	1fde <__aeabi_dsub+0xd2>
    1fdc:	e0e9      	b.n	21b2 <STACK_SIZE+0x1b2>
    1fde:	2220      	movs	r2, #32
    1fe0:	003c      	movs	r4, r7
    1fe2:	1ad2      	subs	r2, r2, r3
    1fe4:	409d      	lsls	r5, r3
    1fe6:	40d4      	lsrs	r4, r2
    1fe8:	409f      	lsls	r7, r3
    1fea:	4325      	orrs	r5, r4
    1fec:	429e      	cmp	r6, r3
    1fee:	dd00      	ble.n	1ff2 <__aeabi_dsub+0xe6>
    1ff0:	e0db      	b.n	21aa <STACK_SIZE+0x1aa>
    1ff2:	1b9e      	subs	r6, r3, r6
    1ff4:	1c73      	adds	r3, r6, #1
    1ff6:	2b1f      	cmp	r3, #31
    1ff8:	dd00      	ble.n	1ffc <__aeabi_dsub+0xf0>
    1ffa:	e10a      	b.n	2212 <STACK_SIZE+0x212>
    1ffc:	2220      	movs	r2, #32
    1ffe:	0038      	movs	r0, r7
    2000:	1ad2      	subs	r2, r2, r3
    2002:	0029      	movs	r1, r5
    2004:	4097      	lsls	r7, r2
    2006:	002c      	movs	r4, r5
    2008:	4091      	lsls	r1, r2
    200a:	40d8      	lsrs	r0, r3
    200c:	1e7a      	subs	r2, r7, #1
    200e:	4197      	sbcs	r7, r2
    2010:	40dc      	lsrs	r4, r3
    2012:	2600      	movs	r6, #0
    2014:	4301      	orrs	r1, r0
    2016:	430f      	orrs	r7, r1
    2018:	077b      	lsls	r3, r7, #29
    201a:	d009      	beq.n	2030 <STACK_SIZE+0x30>
    201c:	230f      	movs	r3, #15
    201e:	403b      	ands	r3, r7
    2020:	2b04      	cmp	r3, #4
    2022:	d005      	beq.n	2030 <STACK_SIZE+0x30>
    2024:	1d3b      	adds	r3, r7, #4
    2026:	42bb      	cmp	r3, r7
    2028:	41bf      	sbcs	r7, r7
    202a:	427f      	negs	r7, r7
    202c:	19e4      	adds	r4, r4, r7
    202e:	001f      	movs	r7, r3
    2030:	0223      	lsls	r3, r4, #8
    2032:	d525      	bpl.n	2080 <STACK_SIZE+0x80>
    2034:	4b86      	ldr	r3, [pc, #536]	; (2250 <STACK_SIZE+0x250>)
    2036:	3601      	adds	r6, #1
    2038:	429e      	cmp	r6, r3
    203a:	d100      	bne.n	203e <STACK_SIZE+0x3e>
    203c:	e0af      	b.n	219e <STACK_SIZE+0x19e>
    203e:	4b85      	ldr	r3, [pc, #532]	; (2254 <STACK_SIZE+0x254>)
    2040:	2501      	movs	r5, #1
    2042:	401c      	ands	r4, r3
    2044:	4643      	mov	r3, r8
    2046:	0762      	lsls	r2, r4, #29
    2048:	08ff      	lsrs	r7, r7, #3
    204a:	0264      	lsls	r4, r4, #9
    204c:	0576      	lsls	r6, r6, #21
    204e:	4317      	orrs	r7, r2
    2050:	0b24      	lsrs	r4, r4, #12
    2052:	0d76      	lsrs	r6, r6, #21
    2054:	401d      	ands	r5, r3
    2056:	2100      	movs	r1, #0
    2058:	0324      	lsls	r4, r4, #12
    205a:	0b23      	lsrs	r3, r4, #12
    205c:	0d0c      	lsrs	r4, r1, #20
    205e:	4a7e      	ldr	r2, [pc, #504]	; (2258 <STACK_SIZE+0x258>)
    2060:	0524      	lsls	r4, r4, #20
    2062:	431c      	orrs	r4, r3
    2064:	4014      	ands	r4, r2
    2066:	0533      	lsls	r3, r6, #20
    2068:	4323      	orrs	r3, r4
    206a:	005b      	lsls	r3, r3, #1
    206c:	07ed      	lsls	r5, r5, #31
    206e:	085b      	lsrs	r3, r3, #1
    2070:	432b      	orrs	r3, r5
    2072:	0038      	movs	r0, r7
    2074:	0019      	movs	r1, r3
    2076:	bc1c      	pop	{r2, r3, r4}
    2078:	4690      	mov	r8, r2
    207a:	4699      	mov	r9, r3
    207c:	46a2      	mov	sl, r4
    207e:	bdf0      	pop	{r4, r5, r6, r7, pc}
    2080:	2501      	movs	r5, #1
    2082:	4643      	mov	r3, r8
    2084:	0762      	lsls	r2, r4, #29
    2086:	08ff      	lsrs	r7, r7, #3
    2088:	4317      	orrs	r7, r2
    208a:	08e4      	lsrs	r4, r4, #3
    208c:	401d      	ands	r5, r3
    208e:	4b70      	ldr	r3, [pc, #448]	; (2250 <STACK_SIZE+0x250>)
    2090:	429e      	cmp	r6, r3
    2092:	d036      	beq.n	2102 <STACK_SIZE+0x102>
    2094:	0324      	lsls	r4, r4, #12
    2096:	0576      	lsls	r6, r6, #21
    2098:	0b24      	lsrs	r4, r4, #12
    209a:	0d76      	lsrs	r6, r6, #21
    209c:	e7db      	b.n	2056 <STACK_SIZE+0x56>
    209e:	4663      	mov	r3, ip
    20a0:	1af3      	subs	r3, r6, r3
    20a2:	2b00      	cmp	r3, #0
    20a4:	dc00      	bgt.n	20a8 <STACK_SIZE+0xa8>
    20a6:	e094      	b.n	21d2 <STACK_SIZE+0x1d2>
    20a8:	4660      	mov	r0, ip
    20aa:	2800      	cmp	r0, #0
    20ac:	d035      	beq.n	211a <STACK_SIZE+0x11a>
    20ae:	4868      	ldr	r0, [pc, #416]	; (2250 <STACK_SIZE+0x250>)
    20b0:	4286      	cmp	r6, r0
    20b2:	d0b1      	beq.n	2018 <STACK_SIZE+0x18>
    20b4:	2780      	movs	r7, #128	; 0x80
    20b6:	043f      	lsls	r7, r7, #16
    20b8:	4339      	orrs	r1, r7
    20ba:	2b38      	cmp	r3, #56	; 0x38
    20bc:	dc00      	bgt.n	20c0 <STACK_SIZE+0xc0>
    20be:	e0fd      	b.n	22bc <STACK_SIZE+0x2bc>
    20c0:	430a      	orrs	r2, r1
    20c2:	0017      	movs	r7, r2
    20c4:	2100      	movs	r1, #0
    20c6:	1e7a      	subs	r2, r7, #1
    20c8:	4197      	sbcs	r7, r2
    20ca:	4457      	add	r7, sl
    20cc:	4557      	cmp	r7, sl
    20ce:	4180      	sbcs	r0, r0
    20d0:	1909      	adds	r1, r1, r4
    20d2:	4244      	negs	r4, r0
    20d4:	190c      	adds	r4, r1, r4
    20d6:	0223      	lsls	r3, r4, #8
    20d8:	d53a      	bpl.n	2150 <STACK_SIZE+0x150>
    20da:	4b5d      	ldr	r3, [pc, #372]	; (2250 <STACK_SIZE+0x250>)
    20dc:	3601      	adds	r6, #1
    20de:	429e      	cmp	r6, r3
    20e0:	d100      	bne.n	20e4 <STACK_SIZE+0xe4>
    20e2:	e14b      	b.n	237c <STACK_SIZE+0x37c>
    20e4:	2201      	movs	r2, #1
    20e6:	4b5b      	ldr	r3, [pc, #364]	; (2254 <STACK_SIZE+0x254>)
    20e8:	401c      	ands	r4, r3
    20ea:	087b      	lsrs	r3, r7, #1
    20ec:	4017      	ands	r7, r2
    20ee:	431f      	orrs	r7, r3
    20f0:	07e2      	lsls	r2, r4, #31
    20f2:	4317      	orrs	r7, r2
    20f4:	0864      	lsrs	r4, r4, #1
    20f6:	e78f      	b.n	2018 <STACK_SIZE+0x18>
    20f8:	0008      	movs	r0, r1
    20fa:	4310      	orrs	r0, r2
    20fc:	d000      	beq.n	2100 <STACK_SIZE+0x100>
    20fe:	e724      	b.n	1f4a <__aeabi_dsub+0x3e>
    2100:	e721      	b.n	1f46 <__aeabi_dsub+0x3a>
    2102:	0023      	movs	r3, r4
    2104:	433b      	orrs	r3, r7
    2106:	d100      	bne.n	210a <STACK_SIZE+0x10a>
    2108:	e1b9      	b.n	247e <STACK_SIZE+0x47e>
    210a:	2280      	movs	r2, #128	; 0x80
    210c:	0312      	lsls	r2, r2, #12
    210e:	4314      	orrs	r4, r2
    2110:	0324      	lsls	r4, r4, #12
    2112:	0b24      	lsrs	r4, r4, #12
    2114:	e79f      	b.n	2056 <STACK_SIZE+0x56>
    2116:	002e      	movs	r6, r5
    2118:	e77e      	b.n	2018 <STACK_SIZE+0x18>
    211a:	0008      	movs	r0, r1
    211c:	4310      	orrs	r0, r2
    211e:	d100      	bne.n	2122 <STACK_SIZE+0x122>
    2120:	e0ca      	b.n	22b8 <STACK_SIZE+0x2b8>
    2122:	1e58      	subs	r0, r3, #1
    2124:	4684      	mov	ip, r0
    2126:	2800      	cmp	r0, #0
    2128:	d000      	beq.n	212c <STACK_SIZE+0x12c>
    212a:	e0e7      	b.n	22fc <STACK_SIZE+0x2fc>
    212c:	4452      	add	r2, sl
    212e:	4552      	cmp	r2, sl
    2130:	4180      	sbcs	r0, r0
    2132:	1864      	adds	r4, r4, r1
    2134:	4240      	negs	r0, r0
    2136:	1824      	adds	r4, r4, r0
    2138:	0017      	movs	r7, r2
    213a:	2601      	movs	r6, #1
    213c:	0223      	lsls	r3, r4, #8
    213e:	d507      	bpl.n	2150 <STACK_SIZE+0x150>
    2140:	2602      	movs	r6, #2
    2142:	e7cf      	b.n	20e4 <STACK_SIZE+0xe4>
    2144:	4664      	mov	r4, ip
    2146:	432c      	orrs	r4, r5
    2148:	d100      	bne.n	214c <STACK_SIZE+0x14c>
    214a:	e1b3      	b.n	24b4 <STACK_SIZE+0x4b4>
    214c:	002c      	movs	r4, r5
    214e:	4667      	mov	r7, ip
    2150:	077b      	lsls	r3, r7, #29
    2152:	d000      	beq.n	2156 <STACK_SIZE+0x156>
    2154:	e762      	b.n	201c <STACK_SIZE+0x1c>
    2156:	0763      	lsls	r3, r4, #29
    2158:	08ff      	lsrs	r7, r7, #3
    215a:	431f      	orrs	r7, r3
    215c:	2501      	movs	r5, #1
    215e:	4643      	mov	r3, r8
    2160:	08e4      	lsrs	r4, r4, #3
    2162:	401d      	ands	r5, r3
    2164:	e793      	b.n	208e <STACK_SIZE+0x8e>
    2166:	2d00      	cmp	r5, #0
    2168:	d178      	bne.n	225c <STACK_SIZE+0x25c>
    216a:	1c75      	adds	r5, r6, #1
    216c:	056d      	lsls	r5, r5, #21
    216e:	0d6d      	lsrs	r5, r5, #21
    2170:	2d01      	cmp	r5, #1
    2172:	dc00      	bgt.n	2176 <STACK_SIZE+0x176>
    2174:	e0f2      	b.n	235c <STACK_SIZE+0x35c>
    2176:	4650      	mov	r0, sl
    2178:	1a80      	subs	r0, r0, r2
    217a:	4582      	cmp	sl, r0
    217c:	41bf      	sbcs	r7, r7
    217e:	1a65      	subs	r5, r4, r1
    2180:	427f      	negs	r7, r7
    2182:	1bed      	subs	r5, r5, r7
    2184:	4684      	mov	ip, r0
    2186:	0228      	lsls	r0, r5, #8
    2188:	d400      	bmi.n	218c <STACK_SIZE+0x18c>
    218a:	e08c      	b.n	22a6 <STACK_SIZE+0x2a6>
    218c:	4650      	mov	r0, sl
    218e:	1a17      	subs	r7, r2, r0
    2190:	42ba      	cmp	r2, r7
    2192:	4192      	sbcs	r2, r2
    2194:	1b0c      	subs	r4, r1, r4
    2196:	4255      	negs	r5, r2
    2198:	1b65      	subs	r5, r4, r5
    219a:	4698      	mov	r8, r3
    219c:	e714      	b.n	1fc8 <__aeabi_dsub+0xbc>
    219e:	2501      	movs	r5, #1
    21a0:	4643      	mov	r3, r8
    21a2:	2400      	movs	r4, #0
    21a4:	401d      	ands	r5, r3
    21a6:	2700      	movs	r7, #0
    21a8:	e755      	b.n	2056 <STACK_SIZE+0x56>
    21aa:	4c2a      	ldr	r4, [pc, #168]	; (2254 <STACK_SIZE+0x254>)
    21ac:	1af6      	subs	r6, r6, r3
    21ae:	402c      	ands	r4, r5
    21b0:	e732      	b.n	2018 <STACK_SIZE+0x18>
    21b2:	003d      	movs	r5, r7
    21b4:	3828      	subs	r0, #40	; 0x28
    21b6:	4085      	lsls	r5, r0
    21b8:	2700      	movs	r7, #0
    21ba:	e717      	b.n	1fec <__aeabi_dsub+0xe0>
    21bc:	0038      	movs	r0, r7
    21be:	f000 fad1 	bl	2764 <__clzsi2>
    21c2:	3020      	adds	r0, #32
    21c4:	e706      	b.n	1fd4 <__aeabi_dsub+0xc8>
    21c6:	430a      	orrs	r2, r1
    21c8:	0017      	movs	r7, r2
    21ca:	2100      	movs	r1, #0
    21cc:	1e7a      	subs	r2, r7, #1
    21ce:	4197      	sbcs	r7, r2
    21d0:	e6ee      	b.n	1fb0 <__aeabi_dsub+0xa4>
    21d2:	2b00      	cmp	r3, #0
    21d4:	d000      	beq.n	21d8 <STACK_SIZE+0x1d8>
    21d6:	e0e5      	b.n	23a4 <STACK_SIZE+0x3a4>
    21d8:	1c73      	adds	r3, r6, #1
    21da:	469c      	mov	ip, r3
    21dc:	055b      	lsls	r3, r3, #21
    21de:	0d5b      	lsrs	r3, r3, #21
    21e0:	2b01      	cmp	r3, #1
    21e2:	dc00      	bgt.n	21e6 <STACK_SIZE+0x1e6>
    21e4:	e09f      	b.n	2326 <STACK_SIZE+0x326>
    21e6:	4b1a      	ldr	r3, [pc, #104]	; (2250 <STACK_SIZE+0x250>)
    21e8:	459c      	cmp	ip, r3
    21ea:	d100      	bne.n	21ee <STACK_SIZE+0x1ee>
    21ec:	e0c5      	b.n	237a <STACK_SIZE+0x37a>
    21ee:	4452      	add	r2, sl
    21f0:	4552      	cmp	r2, sl
    21f2:	4180      	sbcs	r0, r0
    21f4:	1864      	adds	r4, r4, r1
    21f6:	4240      	negs	r0, r0
    21f8:	1824      	adds	r4, r4, r0
    21fa:	07e7      	lsls	r7, r4, #31
    21fc:	0852      	lsrs	r2, r2, #1
    21fe:	4317      	orrs	r7, r2
    2200:	0864      	lsrs	r4, r4, #1
    2202:	4666      	mov	r6, ip
    2204:	e708      	b.n	2018 <STACK_SIZE+0x18>
    2206:	4812      	ldr	r0, [pc, #72]	; (2250 <STACK_SIZE+0x250>)
    2208:	4285      	cmp	r5, r0
    220a:	d100      	bne.n	220e <STACK_SIZE+0x20e>
    220c:	e085      	b.n	231a <STACK_SIZE+0x31a>
    220e:	001d      	movs	r5, r3
    2210:	e6bc      	b.n	1f8c <__aeabi_dsub+0x80>
    2212:	0029      	movs	r1, r5
    2214:	3e1f      	subs	r6, #31
    2216:	40f1      	lsrs	r1, r6
    2218:	2b20      	cmp	r3, #32
    221a:	d100      	bne.n	221e <STACK_SIZE+0x21e>
    221c:	e07f      	b.n	231e <STACK_SIZE+0x31e>
    221e:	2240      	movs	r2, #64	; 0x40
    2220:	1ad3      	subs	r3, r2, r3
    2222:	409d      	lsls	r5, r3
    2224:	432f      	orrs	r7, r5
    2226:	1e7d      	subs	r5, r7, #1
    2228:	41af      	sbcs	r7, r5
    222a:	2400      	movs	r4, #0
    222c:	430f      	orrs	r7, r1
    222e:	2600      	movs	r6, #0
    2230:	e78e      	b.n	2150 <STACK_SIZE+0x150>
    2232:	002b      	movs	r3, r5
    2234:	000f      	movs	r7, r1
    2236:	3b20      	subs	r3, #32
    2238:	40df      	lsrs	r7, r3
    223a:	2d20      	cmp	r5, #32
    223c:	d071      	beq.n	2322 <STACK_SIZE+0x322>
    223e:	2340      	movs	r3, #64	; 0x40
    2240:	1b5d      	subs	r5, r3, r5
    2242:	40a9      	lsls	r1, r5
    2244:	430a      	orrs	r2, r1
    2246:	1e51      	subs	r1, r2, #1
    2248:	418a      	sbcs	r2, r1
    224a:	2100      	movs	r1, #0
    224c:	4317      	orrs	r7, r2
    224e:	e6af      	b.n	1fb0 <__aeabi_dsub+0xa4>
    2250:	000007ff 	.word	0x000007ff
    2254:	ff7fffff 	.word	0xff7fffff
    2258:	800fffff 	.word	0x800fffff
    225c:	2e00      	cmp	r6, #0
    225e:	d03e      	beq.n	22de <STACK_SIZE+0x2de>
    2260:	4eb3      	ldr	r6, [pc, #716]	; (2530 <STACK_SIZE+0x530>)
    2262:	45b4      	cmp	ip, r6
    2264:	d045      	beq.n	22f2 <STACK_SIZE+0x2f2>
    2266:	2680      	movs	r6, #128	; 0x80
    2268:	0436      	lsls	r6, r6, #16
    226a:	426d      	negs	r5, r5
    226c:	4334      	orrs	r4, r6
    226e:	2d38      	cmp	r5, #56	; 0x38
    2270:	dd00      	ble.n	2274 <STACK_SIZE+0x274>
    2272:	e0a8      	b.n	23c6 <STACK_SIZE+0x3c6>
    2274:	2d1f      	cmp	r5, #31
    2276:	dd00      	ble.n	227a <STACK_SIZE+0x27a>
    2278:	e11f      	b.n	24ba <STACK_SIZE+0x4ba>
    227a:	2620      	movs	r6, #32
    227c:	0027      	movs	r7, r4
    227e:	4650      	mov	r0, sl
    2280:	1b76      	subs	r6, r6, r5
    2282:	40b7      	lsls	r7, r6
    2284:	40e8      	lsrs	r0, r5
    2286:	4307      	orrs	r7, r0
    2288:	4650      	mov	r0, sl
    228a:	40b0      	lsls	r0, r6
    228c:	1e46      	subs	r6, r0, #1
    228e:	41b0      	sbcs	r0, r6
    2290:	40ec      	lsrs	r4, r5
    2292:	4338      	orrs	r0, r7
    2294:	1a17      	subs	r7, r2, r0
    2296:	42ba      	cmp	r2, r7
    2298:	4192      	sbcs	r2, r2
    229a:	1b0c      	subs	r4, r1, r4
    229c:	4252      	negs	r2, r2
    229e:	1aa4      	subs	r4, r4, r2
    22a0:	4666      	mov	r6, ip
    22a2:	4698      	mov	r8, r3
    22a4:	e68b      	b.n	1fbe <__aeabi_dsub+0xb2>
    22a6:	4664      	mov	r4, ip
    22a8:	4667      	mov	r7, ip
    22aa:	432c      	orrs	r4, r5
    22ac:	d000      	beq.n	22b0 <STACK_SIZE+0x2b0>
    22ae:	e68b      	b.n	1fc8 <__aeabi_dsub+0xbc>
    22b0:	2500      	movs	r5, #0
    22b2:	2600      	movs	r6, #0
    22b4:	2700      	movs	r7, #0
    22b6:	e6ea      	b.n	208e <STACK_SIZE+0x8e>
    22b8:	001e      	movs	r6, r3
    22ba:	e6ad      	b.n	2018 <STACK_SIZE+0x18>
    22bc:	2b1f      	cmp	r3, #31
    22be:	dc60      	bgt.n	2382 <STACK_SIZE+0x382>
    22c0:	2720      	movs	r7, #32
    22c2:	1af8      	subs	r0, r7, r3
    22c4:	000f      	movs	r7, r1
    22c6:	4684      	mov	ip, r0
    22c8:	4087      	lsls	r7, r0
    22ca:	0010      	movs	r0, r2
    22cc:	40d8      	lsrs	r0, r3
    22ce:	4307      	orrs	r7, r0
    22d0:	4660      	mov	r0, ip
    22d2:	4082      	lsls	r2, r0
    22d4:	1e50      	subs	r0, r2, #1
    22d6:	4182      	sbcs	r2, r0
    22d8:	40d9      	lsrs	r1, r3
    22da:	4317      	orrs	r7, r2
    22dc:	e6f5      	b.n	20ca <STACK_SIZE+0xca>
    22de:	0026      	movs	r6, r4
    22e0:	4650      	mov	r0, sl
    22e2:	4306      	orrs	r6, r0
    22e4:	d005      	beq.n	22f2 <STACK_SIZE+0x2f2>
    22e6:	43ed      	mvns	r5, r5
    22e8:	2d00      	cmp	r5, #0
    22ea:	d0d3      	beq.n	2294 <STACK_SIZE+0x294>
    22ec:	4e90      	ldr	r6, [pc, #576]	; (2530 <STACK_SIZE+0x530>)
    22ee:	45b4      	cmp	ip, r6
    22f0:	d1bd      	bne.n	226e <STACK_SIZE+0x26e>
    22f2:	000c      	movs	r4, r1
    22f4:	0017      	movs	r7, r2
    22f6:	4666      	mov	r6, ip
    22f8:	4698      	mov	r8, r3
    22fa:	e68d      	b.n	2018 <STACK_SIZE+0x18>
    22fc:	488c      	ldr	r0, [pc, #560]	; (2530 <STACK_SIZE+0x530>)
    22fe:	4283      	cmp	r3, r0
    2300:	d00b      	beq.n	231a <STACK_SIZE+0x31a>
    2302:	4663      	mov	r3, ip
    2304:	e6d9      	b.n	20ba <STACK_SIZE+0xba>
    2306:	2d00      	cmp	r5, #0
    2308:	d000      	beq.n	230c <STACK_SIZE+0x30c>
    230a:	e096      	b.n	243a <STACK_SIZE+0x43a>
    230c:	0008      	movs	r0, r1
    230e:	4310      	orrs	r0, r2
    2310:	d100      	bne.n	2314 <STACK_SIZE+0x314>
    2312:	e0e2      	b.n	24da <STACK_SIZE+0x4da>
    2314:	000c      	movs	r4, r1
    2316:	0017      	movs	r7, r2
    2318:	4698      	mov	r8, r3
    231a:	4e85      	ldr	r6, [pc, #532]	; (2530 <STACK_SIZE+0x530>)
    231c:	e67c      	b.n	2018 <STACK_SIZE+0x18>
    231e:	2500      	movs	r5, #0
    2320:	e780      	b.n	2224 <STACK_SIZE+0x224>
    2322:	2100      	movs	r1, #0
    2324:	e78e      	b.n	2244 <STACK_SIZE+0x244>
    2326:	0023      	movs	r3, r4
    2328:	4650      	mov	r0, sl
    232a:	4303      	orrs	r3, r0
    232c:	2e00      	cmp	r6, #0
    232e:	d000      	beq.n	2332 <STACK_SIZE+0x332>
    2330:	e0a8      	b.n	2484 <STACK_SIZE+0x484>
    2332:	2b00      	cmp	r3, #0
    2334:	d100      	bne.n	2338 <STACK_SIZE+0x338>
    2336:	e0de      	b.n	24f6 <STACK_SIZE+0x4f6>
    2338:	000b      	movs	r3, r1
    233a:	4313      	orrs	r3, r2
    233c:	d100      	bne.n	2340 <STACK_SIZE+0x340>
    233e:	e66b      	b.n	2018 <STACK_SIZE+0x18>
    2340:	4452      	add	r2, sl
    2342:	4552      	cmp	r2, sl
    2344:	4180      	sbcs	r0, r0
    2346:	1864      	adds	r4, r4, r1
    2348:	4240      	negs	r0, r0
    234a:	1824      	adds	r4, r4, r0
    234c:	0017      	movs	r7, r2
    234e:	0223      	lsls	r3, r4, #8
    2350:	d400      	bmi.n	2354 <STACK_SIZE+0x354>
    2352:	e6fd      	b.n	2150 <STACK_SIZE+0x150>
    2354:	4b77      	ldr	r3, [pc, #476]	; (2534 <STACK_SIZE+0x534>)
    2356:	4666      	mov	r6, ip
    2358:	401c      	ands	r4, r3
    235a:	e65d      	b.n	2018 <STACK_SIZE+0x18>
    235c:	0025      	movs	r5, r4
    235e:	4650      	mov	r0, sl
    2360:	4305      	orrs	r5, r0
    2362:	2e00      	cmp	r6, #0
    2364:	d1cf      	bne.n	2306 <STACK_SIZE+0x306>
    2366:	2d00      	cmp	r5, #0
    2368:	d14f      	bne.n	240a <STACK_SIZE+0x40a>
    236a:	000c      	movs	r4, r1
    236c:	4314      	orrs	r4, r2
    236e:	d100      	bne.n	2372 <STACK_SIZE+0x372>
    2370:	e0a0      	b.n	24b4 <STACK_SIZE+0x4b4>
    2372:	000c      	movs	r4, r1
    2374:	0017      	movs	r7, r2
    2376:	4698      	mov	r8, r3
    2378:	e64e      	b.n	2018 <STACK_SIZE+0x18>
    237a:	4666      	mov	r6, ip
    237c:	2400      	movs	r4, #0
    237e:	2700      	movs	r7, #0
    2380:	e685      	b.n	208e <STACK_SIZE+0x8e>
    2382:	001f      	movs	r7, r3
    2384:	0008      	movs	r0, r1
    2386:	3f20      	subs	r7, #32
    2388:	40f8      	lsrs	r0, r7
    238a:	0007      	movs	r7, r0
    238c:	2b20      	cmp	r3, #32
    238e:	d100      	bne.n	2392 <STACK_SIZE+0x392>
    2390:	e08e      	b.n	24b0 <STACK_SIZE+0x4b0>
    2392:	2040      	movs	r0, #64	; 0x40
    2394:	1ac3      	subs	r3, r0, r3
    2396:	4099      	lsls	r1, r3
    2398:	430a      	orrs	r2, r1
    239a:	1e51      	subs	r1, r2, #1
    239c:	418a      	sbcs	r2, r1
    239e:	2100      	movs	r1, #0
    23a0:	4317      	orrs	r7, r2
    23a2:	e692      	b.n	20ca <STACK_SIZE+0xca>
    23a4:	2e00      	cmp	r6, #0
    23a6:	d114      	bne.n	23d2 <STACK_SIZE+0x3d2>
    23a8:	0026      	movs	r6, r4
    23aa:	4650      	mov	r0, sl
    23ac:	4306      	orrs	r6, r0
    23ae:	d062      	beq.n	2476 <STACK_SIZE+0x476>
    23b0:	43db      	mvns	r3, r3
    23b2:	2b00      	cmp	r3, #0
    23b4:	d15c      	bne.n	2470 <STACK_SIZE+0x470>
    23b6:	1887      	adds	r7, r0, r2
    23b8:	4297      	cmp	r7, r2
    23ba:	4192      	sbcs	r2, r2
    23bc:	1864      	adds	r4, r4, r1
    23be:	4252      	negs	r2, r2
    23c0:	18a4      	adds	r4, r4, r2
    23c2:	4666      	mov	r6, ip
    23c4:	e687      	b.n	20d6 <STACK_SIZE+0xd6>
    23c6:	4650      	mov	r0, sl
    23c8:	4320      	orrs	r0, r4
    23ca:	1e44      	subs	r4, r0, #1
    23cc:	41a0      	sbcs	r0, r4
    23ce:	2400      	movs	r4, #0
    23d0:	e760      	b.n	2294 <STACK_SIZE+0x294>
    23d2:	4e57      	ldr	r6, [pc, #348]	; (2530 <STACK_SIZE+0x530>)
    23d4:	45b4      	cmp	ip, r6
    23d6:	d04e      	beq.n	2476 <STACK_SIZE+0x476>
    23d8:	2680      	movs	r6, #128	; 0x80
    23da:	0436      	lsls	r6, r6, #16
    23dc:	425b      	negs	r3, r3
    23de:	4334      	orrs	r4, r6
    23e0:	2b38      	cmp	r3, #56	; 0x38
    23e2:	dd00      	ble.n	23e6 <STACK_SIZE+0x3e6>
    23e4:	e07f      	b.n	24e6 <STACK_SIZE+0x4e6>
    23e6:	2b1f      	cmp	r3, #31
    23e8:	dd00      	ble.n	23ec <STACK_SIZE+0x3ec>
    23ea:	e08b      	b.n	2504 <STACK_SIZE+0x504>
    23ec:	2620      	movs	r6, #32
    23ee:	0027      	movs	r7, r4
    23f0:	4650      	mov	r0, sl
    23f2:	1af6      	subs	r6, r6, r3
    23f4:	40b7      	lsls	r7, r6
    23f6:	40d8      	lsrs	r0, r3
    23f8:	4307      	orrs	r7, r0
    23fa:	4650      	mov	r0, sl
    23fc:	40b0      	lsls	r0, r6
    23fe:	1e46      	subs	r6, r0, #1
    2400:	41b0      	sbcs	r0, r6
    2402:	4307      	orrs	r7, r0
    2404:	40dc      	lsrs	r4, r3
    2406:	18bf      	adds	r7, r7, r2
    2408:	e7d6      	b.n	23b8 <STACK_SIZE+0x3b8>
    240a:	000d      	movs	r5, r1
    240c:	4315      	orrs	r5, r2
    240e:	d100      	bne.n	2412 <STACK_SIZE+0x412>
    2410:	e602      	b.n	2018 <STACK_SIZE+0x18>
    2412:	4650      	mov	r0, sl
    2414:	1a80      	subs	r0, r0, r2
    2416:	4582      	cmp	sl, r0
    2418:	41bf      	sbcs	r7, r7
    241a:	1a65      	subs	r5, r4, r1
    241c:	427f      	negs	r7, r7
    241e:	1bed      	subs	r5, r5, r7
    2420:	4684      	mov	ip, r0
    2422:	0228      	lsls	r0, r5, #8
    2424:	d400      	bmi.n	2428 <STACK_SIZE+0x428>
    2426:	e68d      	b.n	2144 <STACK_SIZE+0x144>
    2428:	4650      	mov	r0, sl
    242a:	1a17      	subs	r7, r2, r0
    242c:	42ba      	cmp	r2, r7
    242e:	4192      	sbcs	r2, r2
    2430:	1b0c      	subs	r4, r1, r4
    2432:	4252      	negs	r2, r2
    2434:	1aa4      	subs	r4, r4, r2
    2436:	4698      	mov	r8, r3
    2438:	e5ee      	b.n	2018 <STACK_SIZE+0x18>
    243a:	000d      	movs	r5, r1
    243c:	4315      	orrs	r5, r2
    243e:	d100      	bne.n	2442 <STACK_SIZE+0x442>
    2440:	e76b      	b.n	231a <STACK_SIZE+0x31a>
    2442:	4650      	mov	r0, sl
    2444:	0767      	lsls	r7, r4, #29
    2446:	08c0      	lsrs	r0, r0, #3
    2448:	4307      	orrs	r7, r0
    244a:	2080      	movs	r0, #128	; 0x80
    244c:	08e4      	lsrs	r4, r4, #3
    244e:	0300      	lsls	r0, r0, #12
    2450:	4204      	tst	r4, r0
    2452:	d007      	beq.n	2464 <STACK_SIZE+0x464>
    2454:	08cd      	lsrs	r5, r1, #3
    2456:	4205      	tst	r5, r0
    2458:	d104      	bne.n	2464 <STACK_SIZE+0x464>
    245a:	002c      	movs	r4, r5
    245c:	4698      	mov	r8, r3
    245e:	08d7      	lsrs	r7, r2, #3
    2460:	0749      	lsls	r1, r1, #29
    2462:	430f      	orrs	r7, r1
    2464:	0f7b      	lsrs	r3, r7, #29
    2466:	00e4      	lsls	r4, r4, #3
    2468:	431c      	orrs	r4, r3
    246a:	00ff      	lsls	r7, r7, #3
    246c:	4e30      	ldr	r6, [pc, #192]	; (2530 <STACK_SIZE+0x530>)
    246e:	e5d3      	b.n	2018 <STACK_SIZE+0x18>
    2470:	4e2f      	ldr	r6, [pc, #188]	; (2530 <STACK_SIZE+0x530>)
    2472:	45b4      	cmp	ip, r6
    2474:	d1b4      	bne.n	23e0 <STACK_SIZE+0x3e0>
    2476:	000c      	movs	r4, r1
    2478:	0017      	movs	r7, r2
    247a:	4666      	mov	r6, ip
    247c:	e5cc      	b.n	2018 <STACK_SIZE+0x18>
    247e:	2700      	movs	r7, #0
    2480:	2400      	movs	r4, #0
    2482:	e5e8      	b.n	2056 <STACK_SIZE+0x56>
    2484:	2b00      	cmp	r3, #0
    2486:	d039      	beq.n	24fc <STACK_SIZE+0x4fc>
    2488:	000b      	movs	r3, r1
    248a:	4313      	orrs	r3, r2
    248c:	d100      	bne.n	2490 <STACK_SIZE+0x490>
    248e:	e744      	b.n	231a <STACK_SIZE+0x31a>
    2490:	08c0      	lsrs	r0, r0, #3
    2492:	0767      	lsls	r7, r4, #29
    2494:	4307      	orrs	r7, r0
    2496:	2080      	movs	r0, #128	; 0x80
    2498:	08e4      	lsrs	r4, r4, #3
    249a:	0300      	lsls	r0, r0, #12
    249c:	4204      	tst	r4, r0
    249e:	d0e1      	beq.n	2464 <STACK_SIZE+0x464>
    24a0:	08cb      	lsrs	r3, r1, #3
    24a2:	4203      	tst	r3, r0
    24a4:	d1de      	bne.n	2464 <STACK_SIZE+0x464>
    24a6:	08d7      	lsrs	r7, r2, #3
    24a8:	0749      	lsls	r1, r1, #29
    24aa:	430f      	orrs	r7, r1
    24ac:	001c      	movs	r4, r3
    24ae:	e7d9      	b.n	2464 <STACK_SIZE+0x464>
    24b0:	2100      	movs	r1, #0
    24b2:	e771      	b.n	2398 <STACK_SIZE+0x398>
    24b4:	2500      	movs	r5, #0
    24b6:	2700      	movs	r7, #0
    24b8:	e5e9      	b.n	208e <STACK_SIZE+0x8e>
    24ba:	002e      	movs	r6, r5
    24bc:	0027      	movs	r7, r4
    24be:	3e20      	subs	r6, #32
    24c0:	40f7      	lsrs	r7, r6
    24c2:	2d20      	cmp	r5, #32
    24c4:	d02f      	beq.n	2526 <STACK_SIZE+0x526>
    24c6:	2640      	movs	r6, #64	; 0x40
    24c8:	1b75      	subs	r5, r6, r5
    24ca:	40ac      	lsls	r4, r5
    24cc:	4650      	mov	r0, sl
    24ce:	4320      	orrs	r0, r4
    24d0:	1e44      	subs	r4, r0, #1
    24d2:	41a0      	sbcs	r0, r4
    24d4:	2400      	movs	r4, #0
    24d6:	4338      	orrs	r0, r7
    24d8:	e6dc      	b.n	2294 <STACK_SIZE+0x294>
    24da:	2480      	movs	r4, #128	; 0x80
    24dc:	2500      	movs	r5, #0
    24de:	0324      	lsls	r4, r4, #12
    24e0:	4e13      	ldr	r6, [pc, #76]	; (2530 <STACK_SIZE+0x530>)
    24e2:	2700      	movs	r7, #0
    24e4:	e5d3      	b.n	208e <STACK_SIZE+0x8e>
    24e6:	4650      	mov	r0, sl
    24e8:	4320      	orrs	r0, r4
    24ea:	0007      	movs	r7, r0
    24ec:	1e78      	subs	r0, r7, #1
    24ee:	4187      	sbcs	r7, r0
    24f0:	2400      	movs	r4, #0
    24f2:	18bf      	adds	r7, r7, r2
    24f4:	e760      	b.n	23b8 <STACK_SIZE+0x3b8>
    24f6:	000c      	movs	r4, r1
    24f8:	0017      	movs	r7, r2
    24fa:	e58d      	b.n	2018 <STACK_SIZE+0x18>
    24fc:	000c      	movs	r4, r1
    24fe:	0017      	movs	r7, r2
    2500:	4e0b      	ldr	r6, [pc, #44]	; (2530 <STACK_SIZE+0x530>)
    2502:	e589      	b.n	2018 <STACK_SIZE+0x18>
    2504:	001e      	movs	r6, r3
    2506:	0027      	movs	r7, r4
    2508:	3e20      	subs	r6, #32
    250a:	40f7      	lsrs	r7, r6
    250c:	2b20      	cmp	r3, #32
    250e:	d00c      	beq.n	252a <STACK_SIZE+0x52a>
    2510:	2640      	movs	r6, #64	; 0x40
    2512:	1af3      	subs	r3, r6, r3
    2514:	409c      	lsls	r4, r3
    2516:	4650      	mov	r0, sl
    2518:	4320      	orrs	r0, r4
    251a:	1e44      	subs	r4, r0, #1
    251c:	41a0      	sbcs	r0, r4
    251e:	4307      	orrs	r7, r0
    2520:	2400      	movs	r4, #0
    2522:	18bf      	adds	r7, r7, r2
    2524:	e748      	b.n	23b8 <STACK_SIZE+0x3b8>
    2526:	2400      	movs	r4, #0
    2528:	e7d0      	b.n	24cc <STACK_SIZE+0x4cc>
    252a:	2400      	movs	r4, #0
    252c:	e7f3      	b.n	2516 <STACK_SIZE+0x516>
    252e:	46c0      	nop			; (mov r8, r8)
    2530:	000007ff 	.word	0x000007ff
    2534:	ff7fffff 	.word	0xff7fffff

00002538 <__aeabi_f2d>:
    2538:	0041      	lsls	r1, r0, #1
    253a:	0e09      	lsrs	r1, r1, #24
    253c:	1c4b      	adds	r3, r1, #1
    253e:	b570      	push	{r4, r5, r6, lr}
    2540:	b2db      	uxtb	r3, r3
    2542:	0246      	lsls	r6, r0, #9
    2544:	0a75      	lsrs	r5, r6, #9
    2546:	0fc4      	lsrs	r4, r0, #31
    2548:	2b01      	cmp	r3, #1
    254a:	dd14      	ble.n	2576 <__aeabi_f2d+0x3e>
    254c:	23e0      	movs	r3, #224	; 0xe0
    254e:	009b      	lsls	r3, r3, #2
    2550:	076d      	lsls	r5, r5, #29
    2552:	0b36      	lsrs	r6, r6, #12
    2554:	18cb      	adds	r3, r1, r3
    2556:	2100      	movs	r1, #0
    2558:	0d0a      	lsrs	r2, r1, #20
    255a:	0028      	movs	r0, r5
    255c:	0512      	lsls	r2, r2, #20
    255e:	4d1c      	ldr	r5, [pc, #112]	; (25d0 <__aeabi_f2d+0x98>)
    2560:	4332      	orrs	r2, r6
    2562:	055b      	lsls	r3, r3, #21
    2564:	402a      	ands	r2, r5
    2566:	085b      	lsrs	r3, r3, #1
    2568:	4313      	orrs	r3, r2
    256a:	005b      	lsls	r3, r3, #1
    256c:	07e4      	lsls	r4, r4, #31
    256e:	085b      	lsrs	r3, r3, #1
    2570:	4323      	orrs	r3, r4
    2572:	0019      	movs	r1, r3
    2574:	bd70      	pop	{r4, r5, r6, pc}
    2576:	2900      	cmp	r1, #0
    2578:	d114      	bne.n	25a4 <__aeabi_f2d+0x6c>
    257a:	2d00      	cmp	r5, #0
    257c:	d01e      	beq.n	25bc <__aeabi_f2d+0x84>
    257e:	0028      	movs	r0, r5
    2580:	f000 f8f0 	bl	2764 <__clzsi2>
    2584:	280a      	cmp	r0, #10
    2586:	dc1c      	bgt.n	25c2 <__aeabi_f2d+0x8a>
    2588:	230b      	movs	r3, #11
    258a:	002a      	movs	r2, r5
    258c:	1a1b      	subs	r3, r3, r0
    258e:	40da      	lsrs	r2, r3
    2590:	0003      	movs	r3, r0
    2592:	3315      	adds	r3, #21
    2594:	409d      	lsls	r5, r3
    2596:	4b0f      	ldr	r3, [pc, #60]	; (25d4 <__aeabi_f2d+0x9c>)
    2598:	0312      	lsls	r2, r2, #12
    259a:	1a1b      	subs	r3, r3, r0
    259c:	055b      	lsls	r3, r3, #21
    259e:	0b16      	lsrs	r6, r2, #12
    25a0:	0d5b      	lsrs	r3, r3, #21
    25a2:	e7d8      	b.n	2556 <__aeabi_f2d+0x1e>
    25a4:	2d00      	cmp	r5, #0
    25a6:	d006      	beq.n	25b6 <__aeabi_f2d+0x7e>
    25a8:	0b32      	lsrs	r2, r6, #12
    25aa:	2680      	movs	r6, #128	; 0x80
    25ac:	0336      	lsls	r6, r6, #12
    25ae:	076d      	lsls	r5, r5, #29
    25b0:	4316      	orrs	r6, r2
    25b2:	4b09      	ldr	r3, [pc, #36]	; (25d8 <__aeabi_f2d+0xa0>)
    25b4:	e7cf      	b.n	2556 <__aeabi_f2d+0x1e>
    25b6:	4b08      	ldr	r3, [pc, #32]	; (25d8 <__aeabi_f2d+0xa0>)
    25b8:	2600      	movs	r6, #0
    25ba:	e7cc      	b.n	2556 <__aeabi_f2d+0x1e>
    25bc:	2300      	movs	r3, #0
    25be:	2600      	movs	r6, #0
    25c0:	e7c9      	b.n	2556 <__aeabi_f2d+0x1e>
    25c2:	0003      	movs	r3, r0
    25c4:	002a      	movs	r2, r5
    25c6:	3b0b      	subs	r3, #11
    25c8:	409a      	lsls	r2, r3
    25ca:	2500      	movs	r5, #0
    25cc:	e7e3      	b.n	2596 <__aeabi_f2d+0x5e>
    25ce:	46c0      	nop			; (mov r8, r8)
    25d0:	800fffff 	.word	0x800fffff
    25d4:	00000389 	.word	0x00000389
    25d8:	000007ff 	.word	0x000007ff

000025dc <__aeabi_d2f>:
    25dc:	b5f0      	push	{r4, r5, r6, r7, lr}
    25de:	004c      	lsls	r4, r1, #1
    25e0:	0d64      	lsrs	r4, r4, #21
    25e2:	030b      	lsls	r3, r1, #12
    25e4:	1c62      	adds	r2, r4, #1
    25e6:	0f45      	lsrs	r5, r0, #29
    25e8:	0a5b      	lsrs	r3, r3, #9
    25ea:	0552      	lsls	r2, r2, #21
    25ec:	432b      	orrs	r3, r5
    25ee:	0fc9      	lsrs	r1, r1, #31
    25f0:	00c5      	lsls	r5, r0, #3
    25f2:	0d52      	lsrs	r2, r2, #21
    25f4:	2a01      	cmp	r2, #1
    25f6:	dd28      	ble.n	264a <__aeabi_d2f+0x6e>
    25f8:	4a3a      	ldr	r2, [pc, #232]	; (26e4 <__aeabi_d2f+0x108>)
    25fa:	18a6      	adds	r6, r4, r2
    25fc:	2efe      	cmp	r6, #254	; 0xfe
    25fe:	dc1b      	bgt.n	2638 <__aeabi_d2f+0x5c>
    2600:	2e00      	cmp	r6, #0
    2602:	dd3e      	ble.n	2682 <__aeabi_d2f+0xa6>
    2604:	0180      	lsls	r0, r0, #6
    2606:	0002      	movs	r2, r0
    2608:	1e50      	subs	r0, r2, #1
    260a:	4182      	sbcs	r2, r0
    260c:	0f6d      	lsrs	r5, r5, #29
    260e:	432a      	orrs	r2, r5
    2610:	00db      	lsls	r3, r3, #3
    2612:	4313      	orrs	r3, r2
    2614:	075a      	lsls	r2, r3, #29
    2616:	d004      	beq.n	2622 <__aeabi_d2f+0x46>
    2618:	220f      	movs	r2, #15
    261a:	401a      	ands	r2, r3
    261c:	2a04      	cmp	r2, #4
    261e:	d000      	beq.n	2622 <__aeabi_d2f+0x46>
    2620:	3304      	adds	r3, #4
    2622:	2280      	movs	r2, #128	; 0x80
    2624:	04d2      	lsls	r2, r2, #19
    2626:	401a      	ands	r2, r3
    2628:	d05a      	beq.n	26e0 <__aeabi_d2f+0x104>
    262a:	3601      	adds	r6, #1
    262c:	2eff      	cmp	r6, #255	; 0xff
    262e:	d003      	beq.n	2638 <__aeabi_d2f+0x5c>
    2630:	019b      	lsls	r3, r3, #6
    2632:	0a5b      	lsrs	r3, r3, #9
    2634:	b2f4      	uxtb	r4, r6
    2636:	e001      	b.n	263c <__aeabi_d2f+0x60>
    2638:	24ff      	movs	r4, #255	; 0xff
    263a:	2300      	movs	r3, #0
    263c:	0258      	lsls	r0, r3, #9
    263e:	05e4      	lsls	r4, r4, #23
    2640:	0a40      	lsrs	r0, r0, #9
    2642:	07c9      	lsls	r1, r1, #31
    2644:	4320      	orrs	r0, r4
    2646:	4308      	orrs	r0, r1
    2648:	bdf0      	pop	{r4, r5, r6, r7, pc}
    264a:	2c00      	cmp	r4, #0
    264c:	d007      	beq.n	265e <__aeabi_d2f+0x82>
    264e:	431d      	orrs	r5, r3
    2650:	d0f2      	beq.n	2638 <__aeabi_d2f+0x5c>
    2652:	2080      	movs	r0, #128	; 0x80
    2654:	00db      	lsls	r3, r3, #3
    2656:	0480      	lsls	r0, r0, #18
    2658:	4303      	orrs	r3, r0
    265a:	26ff      	movs	r6, #255	; 0xff
    265c:	e7da      	b.n	2614 <__aeabi_d2f+0x38>
    265e:	432b      	orrs	r3, r5
    2660:	d003      	beq.n	266a <__aeabi_d2f+0x8e>
    2662:	2305      	movs	r3, #5
    2664:	08db      	lsrs	r3, r3, #3
    2666:	2cff      	cmp	r4, #255	; 0xff
    2668:	d003      	beq.n	2672 <__aeabi_d2f+0x96>
    266a:	025b      	lsls	r3, r3, #9
    266c:	0a5b      	lsrs	r3, r3, #9
    266e:	b2e4      	uxtb	r4, r4
    2670:	e7e4      	b.n	263c <__aeabi_d2f+0x60>
    2672:	2b00      	cmp	r3, #0
    2674:	d032      	beq.n	26dc <__aeabi_d2f+0x100>
    2676:	2080      	movs	r0, #128	; 0x80
    2678:	03c0      	lsls	r0, r0, #15
    267a:	4303      	orrs	r3, r0
    267c:	025b      	lsls	r3, r3, #9
    267e:	0a5b      	lsrs	r3, r3, #9
    2680:	e7dc      	b.n	263c <__aeabi_d2f+0x60>
    2682:	0032      	movs	r2, r6
    2684:	3217      	adds	r2, #23
    2686:	db14      	blt.n	26b2 <__aeabi_d2f+0xd6>
    2688:	2280      	movs	r2, #128	; 0x80
    268a:	271e      	movs	r7, #30
    268c:	0412      	lsls	r2, r2, #16
    268e:	4313      	orrs	r3, r2
    2690:	1bbf      	subs	r7, r7, r6
    2692:	2f1f      	cmp	r7, #31
    2694:	dc0f      	bgt.n	26b6 <__aeabi_d2f+0xda>
    2696:	4a14      	ldr	r2, [pc, #80]	; (26e8 <__aeabi_d2f+0x10c>)
    2698:	4694      	mov	ip, r2
    269a:	4464      	add	r4, ip
    269c:	002a      	movs	r2, r5
    269e:	40a5      	lsls	r5, r4
    26a0:	002e      	movs	r6, r5
    26a2:	40a3      	lsls	r3, r4
    26a4:	1e75      	subs	r5, r6, #1
    26a6:	41ae      	sbcs	r6, r5
    26a8:	40fa      	lsrs	r2, r7
    26aa:	4333      	orrs	r3, r6
    26ac:	4313      	orrs	r3, r2
    26ae:	2600      	movs	r6, #0
    26b0:	e7b0      	b.n	2614 <__aeabi_d2f+0x38>
    26b2:	2400      	movs	r4, #0
    26b4:	e7d5      	b.n	2662 <__aeabi_d2f+0x86>
    26b6:	2202      	movs	r2, #2
    26b8:	4252      	negs	r2, r2
    26ba:	1b96      	subs	r6, r2, r6
    26bc:	001a      	movs	r2, r3
    26be:	40f2      	lsrs	r2, r6
    26c0:	2f20      	cmp	r7, #32
    26c2:	d009      	beq.n	26d8 <__aeabi_d2f+0xfc>
    26c4:	4809      	ldr	r0, [pc, #36]	; (26ec <__aeabi_d2f+0x110>)
    26c6:	4684      	mov	ip, r0
    26c8:	4464      	add	r4, ip
    26ca:	40a3      	lsls	r3, r4
    26cc:	432b      	orrs	r3, r5
    26ce:	1e5d      	subs	r5, r3, #1
    26d0:	41ab      	sbcs	r3, r5
    26d2:	2600      	movs	r6, #0
    26d4:	4313      	orrs	r3, r2
    26d6:	e79d      	b.n	2614 <__aeabi_d2f+0x38>
    26d8:	2300      	movs	r3, #0
    26da:	e7f7      	b.n	26cc <__aeabi_d2f+0xf0>
    26dc:	2300      	movs	r3, #0
    26de:	e7ad      	b.n	263c <__aeabi_d2f+0x60>
    26e0:	0034      	movs	r4, r6
    26e2:	e7bf      	b.n	2664 <__aeabi_d2f+0x88>
    26e4:	fffffc80 	.word	0xfffffc80
    26e8:	fffffc82 	.word	0xfffffc82
    26ec:	fffffca2 	.word	0xfffffca2

000026f0 <__aeabi_cfrcmple>:
    26f0:	4684      	mov	ip, r0
    26f2:	1c08      	adds	r0, r1, #0
    26f4:	4661      	mov	r1, ip
    26f6:	e7ff      	b.n	26f8 <__aeabi_cfcmpeq>

000026f8 <__aeabi_cfcmpeq>:
    26f8:	b51f      	push	{r0, r1, r2, r3, r4, lr}
    26fa:	f000 f8b7 	bl	286c <__lesf2>
    26fe:	2800      	cmp	r0, #0
    2700:	d401      	bmi.n	2706 <__aeabi_cfcmpeq+0xe>
    2702:	2100      	movs	r1, #0
    2704:	42c8      	cmn	r0, r1
    2706:	bd1f      	pop	{r0, r1, r2, r3, r4, pc}

00002708 <__aeabi_fcmpeq>:
    2708:	b510      	push	{r4, lr}
    270a:	f000 f849 	bl	27a0 <__eqsf2>
    270e:	4240      	negs	r0, r0
    2710:	3001      	adds	r0, #1
    2712:	bd10      	pop	{r4, pc}

00002714 <__aeabi_fcmplt>:
    2714:	b510      	push	{r4, lr}
    2716:	f000 f8a9 	bl	286c <__lesf2>
    271a:	2800      	cmp	r0, #0
    271c:	db01      	blt.n	2722 <__aeabi_fcmplt+0xe>
    271e:	2000      	movs	r0, #0
    2720:	bd10      	pop	{r4, pc}
    2722:	2001      	movs	r0, #1
    2724:	bd10      	pop	{r4, pc}
    2726:	46c0      	nop			; (mov r8, r8)

00002728 <__aeabi_fcmple>:
    2728:	b510      	push	{r4, lr}
    272a:	f000 f89f 	bl	286c <__lesf2>
    272e:	2800      	cmp	r0, #0
    2730:	dd01      	ble.n	2736 <__aeabi_fcmple+0xe>
    2732:	2000      	movs	r0, #0
    2734:	bd10      	pop	{r4, pc}
    2736:	2001      	movs	r0, #1
    2738:	bd10      	pop	{r4, pc}
    273a:	46c0      	nop			; (mov r8, r8)

0000273c <__aeabi_fcmpgt>:
    273c:	b510      	push	{r4, lr}
    273e:	f000 f855 	bl	27ec <__gesf2>
    2742:	2800      	cmp	r0, #0
    2744:	dc01      	bgt.n	274a <__aeabi_fcmpgt+0xe>
    2746:	2000      	movs	r0, #0
    2748:	bd10      	pop	{r4, pc}
    274a:	2001      	movs	r0, #1
    274c:	bd10      	pop	{r4, pc}
    274e:	46c0      	nop			; (mov r8, r8)

00002750 <__aeabi_fcmpge>:
    2750:	b510      	push	{r4, lr}
    2752:	f000 f84b 	bl	27ec <__gesf2>
    2756:	2800      	cmp	r0, #0
    2758:	da01      	bge.n	275e <__aeabi_fcmpge+0xe>
    275a:	2000      	movs	r0, #0
    275c:	bd10      	pop	{r4, pc}
    275e:	2001      	movs	r0, #1
    2760:	bd10      	pop	{r4, pc}
    2762:	46c0      	nop			; (mov r8, r8)

00002764 <__clzsi2>:
    2764:	211c      	movs	r1, #28
    2766:	2301      	movs	r3, #1
    2768:	041b      	lsls	r3, r3, #16
    276a:	4298      	cmp	r0, r3
    276c:	d301      	bcc.n	2772 <__clzsi2+0xe>
    276e:	0c00      	lsrs	r0, r0, #16
    2770:	3910      	subs	r1, #16
    2772:	0a1b      	lsrs	r3, r3, #8
    2774:	4298      	cmp	r0, r3
    2776:	d301      	bcc.n	277c <__clzsi2+0x18>
    2778:	0a00      	lsrs	r0, r0, #8
    277a:	3908      	subs	r1, #8
    277c:	091b      	lsrs	r3, r3, #4
    277e:	4298      	cmp	r0, r3
    2780:	d301      	bcc.n	2786 <__clzsi2+0x22>
    2782:	0900      	lsrs	r0, r0, #4
    2784:	3904      	subs	r1, #4
    2786:	a202      	add	r2, pc, #8	; (adr r2, 2790 <__clzsi2+0x2c>)
    2788:	5c10      	ldrb	r0, [r2, r0]
    278a:	1840      	adds	r0, r0, r1
    278c:	4770      	bx	lr
    278e:	46c0      	nop			; (mov r8, r8)
    2790:	02020304 	.word	0x02020304
    2794:	01010101 	.word	0x01010101
	...

000027a0 <__eqsf2>:
    27a0:	b570      	push	{r4, r5, r6, lr}
    27a2:	0042      	lsls	r2, r0, #1
    27a4:	0245      	lsls	r5, r0, #9
    27a6:	024e      	lsls	r6, r1, #9
    27a8:	004c      	lsls	r4, r1, #1
    27aa:	0fc3      	lsrs	r3, r0, #31
    27ac:	0a6d      	lsrs	r5, r5, #9
    27ae:	0e12      	lsrs	r2, r2, #24
    27b0:	0a76      	lsrs	r6, r6, #9
    27b2:	0e24      	lsrs	r4, r4, #24
    27b4:	0fc9      	lsrs	r1, r1, #31
    27b6:	2001      	movs	r0, #1
    27b8:	2aff      	cmp	r2, #255	; 0xff
    27ba:	d006      	beq.n	27ca <__eqsf2+0x2a>
    27bc:	2cff      	cmp	r4, #255	; 0xff
    27be:	d003      	beq.n	27c8 <__eqsf2+0x28>
    27c0:	42a2      	cmp	r2, r4
    27c2:	d101      	bne.n	27c8 <__eqsf2+0x28>
    27c4:	42b5      	cmp	r5, r6
    27c6:	d006      	beq.n	27d6 <__eqsf2+0x36>
    27c8:	bd70      	pop	{r4, r5, r6, pc}
    27ca:	2d00      	cmp	r5, #0
    27cc:	d1fc      	bne.n	27c8 <__eqsf2+0x28>
    27ce:	2cff      	cmp	r4, #255	; 0xff
    27d0:	d1fa      	bne.n	27c8 <__eqsf2+0x28>
    27d2:	2e00      	cmp	r6, #0
    27d4:	d1f8      	bne.n	27c8 <__eqsf2+0x28>
    27d6:	428b      	cmp	r3, r1
    27d8:	d006      	beq.n	27e8 <__eqsf2+0x48>
    27da:	2001      	movs	r0, #1
    27dc:	2a00      	cmp	r2, #0
    27de:	d1f3      	bne.n	27c8 <__eqsf2+0x28>
    27e0:	0028      	movs	r0, r5
    27e2:	1e45      	subs	r5, r0, #1
    27e4:	41a8      	sbcs	r0, r5
    27e6:	e7ef      	b.n	27c8 <__eqsf2+0x28>
    27e8:	2000      	movs	r0, #0
    27ea:	e7ed      	b.n	27c8 <__eqsf2+0x28>

000027ec <__gesf2>:
    27ec:	b5f0      	push	{r4, r5, r6, r7, lr}
    27ee:	0042      	lsls	r2, r0, #1
    27f0:	0245      	lsls	r5, r0, #9
    27f2:	024c      	lsls	r4, r1, #9
    27f4:	0fc3      	lsrs	r3, r0, #31
    27f6:	0048      	lsls	r0, r1, #1
    27f8:	0a6d      	lsrs	r5, r5, #9
    27fa:	0e12      	lsrs	r2, r2, #24
    27fc:	0a64      	lsrs	r4, r4, #9
    27fe:	0e00      	lsrs	r0, r0, #24
    2800:	0fc9      	lsrs	r1, r1, #31
    2802:	2aff      	cmp	r2, #255	; 0xff
    2804:	d01e      	beq.n	2844 <__gesf2+0x58>
    2806:	28ff      	cmp	r0, #255	; 0xff
    2808:	d021      	beq.n	284e <__gesf2+0x62>
    280a:	2a00      	cmp	r2, #0
    280c:	d10a      	bne.n	2824 <__gesf2+0x38>
    280e:	426e      	negs	r6, r5
    2810:	416e      	adcs	r6, r5
    2812:	b2f6      	uxtb	r6, r6
    2814:	2800      	cmp	r0, #0
    2816:	d10f      	bne.n	2838 <__gesf2+0x4c>
    2818:	2c00      	cmp	r4, #0
    281a:	d10d      	bne.n	2838 <__gesf2+0x4c>
    281c:	2000      	movs	r0, #0
    281e:	2d00      	cmp	r5, #0
    2820:	d009      	beq.n	2836 <__gesf2+0x4a>
    2822:	e005      	b.n	2830 <__gesf2+0x44>
    2824:	2800      	cmp	r0, #0
    2826:	d101      	bne.n	282c <__gesf2+0x40>
    2828:	2c00      	cmp	r4, #0
    282a:	d001      	beq.n	2830 <__gesf2+0x44>
    282c:	428b      	cmp	r3, r1
    282e:	d011      	beq.n	2854 <__gesf2+0x68>
    2830:	2101      	movs	r1, #1
    2832:	4258      	negs	r0, r3
    2834:	4308      	orrs	r0, r1
    2836:	bdf0      	pop	{r4, r5, r6, r7, pc}
    2838:	2e00      	cmp	r6, #0
    283a:	d0f7      	beq.n	282c <__gesf2+0x40>
    283c:	2001      	movs	r0, #1
    283e:	3901      	subs	r1, #1
    2840:	4308      	orrs	r0, r1
    2842:	e7f8      	b.n	2836 <__gesf2+0x4a>
    2844:	2d00      	cmp	r5, #0
    2846:	d0de      	beq.n	2806 <__gesf2+0x1a>
    2848:	2002      	movs	r0, #2
    284a:	4240      	negs	r0, r0
    284c:	e7f3      	b.n	2836 <__gesf2+0x4a>
    284e:	2c00      	cmp	r4, #0
    2850:	d0db      	beq.n	280a <__gesf2+0x1e>
    2852:	e7f9      	b.n	2848 <__gesf2+0x5c>
    2854:	4282      	cmp	r2, r0
    2856:	dceb      	bgt.n	2830 <__gesf2+0x44>
    2858:	db04      	blt.n	2864 <__gesf2+0x78>
    285a:	42a5      	cmp	r5, r4
    285c:	d8e8      	bhi.n	2830 <__gesf2+0x44>
    285e:	2000      	movs	r0, #0
    2860:	42a5      	cmp	r5, r4
    2862:	d2e8      	bcs.n	2836 <__gesf2+0x4a>
    2864:	2101      	movs	r1, #1
    2866:	1e58      	subs	r0, r3, #1
    2868:	4308      	orrs	r0, r1
    286a:	e7e4      	b.n	2836 <__gesf2+0x4a>

0000286c <__lesf2>:
    286c:	b5f0      	push	{r4, r5, r6, r7, lr}
    286e:	0042      	lsls	r2, r0, #1
    2870:	024d      	lsls	r5, r1, #9
    2872:	004c      	lsls	r4, r1, #1
    2874:	0246      	lsls	r6, r0, #9
    2876:	0a76      	lsrs	r6, r6, #9
    2878:	0e12      	lsrs	r2, r2, #24
    287a:	0fc3      	lsrs	r3, r0, #31
    287c:	0a6d      	lsrs	r5, r5, #9
    287e:	0e24      	lsrs	r4, r4, #24
    2880:	0fc9      	lsrs	r1, r1, #31
    2882:	2aff      	cmp	r2, #255	; 0xff
    2884:	d016      	beq.n	28b4 <__lesf2+0x48>
    2886:	2cff      	cmp	r4, #255	; 0xff
    2888:	d018      	beq.n	28bc <__lesf2+0x50>
    288a:	2a00      	cmp	r2, #0
    288c:	d10a      	bne.n	28a4 <__lesf2+0x38>
    288e:	4270      	negs	r0, r6
    2890:	4170      	adcs	r0, r6
    2892:	b2c0      	uxtb	r0, r0
    2894:	2c00      	cmp	r4, #0
    2896:	d015      	beq.n	28c4 <__lesf2+0x58>
    2898:	2800      	cmp	r0, #0
    289a:	d005      	beq.n	28a8 <__lesf2+0x3c>
    289c:	2001      	movs	r0, #1
    289e:	3901      	subs	r1, #1
    28a0:	4308      	orrs	r0, r1
    28a2:	bdf0      	pop	{r4, r5, r6, r7, pc}
    28a4:	2c00      	cmp	r4, #0
    28a6:	d013      	beq.n	28d0 <__lesf2+0x64>
    28a8:	4299      	cmp	r1, r3
    28aa:	d014      	beq.n	28d6 <__lesf2+0x6a>
    28ac:	2001      	movs	r0, #1
    28ae:	425b      	negs	r3, r3
    28b0:	4318      	orrs	r0, r3
    28b2:	e7f6      	b.n	28a2 <__lesf2+0x36>
    28b4:	2002      	movs	r0, #2
    28b6:	2e00      	cmp	r6, #0
    28b8:	d1f3      	bne.n	28a2 <__lesf2+0x36>
    28ba:	e7e4      	b.n	2886 <__lesf2+0x1a>
    28bc:	2002      	movs	r0, #2
    28be:	2d00      	cmp	r5, #0
    28c0:	d1ef      	bne.n	28a2 <__lesf2+0x36>
    28c2:	e7e2      	b.n	288a <__lesf2+0x1e>
    28c4:	2d00      	cmp	r5, #0
    28c6:	d1e7      	bne.n	2898 <__lesf2+0x2c>
    28c8:	2000      	movs	r0, #0
    28ca:	2e00      	cmp	r6, #0
    28cc:	d0e9      	beq.n	28a2 <__lesf2+0x36>
    28ce:	e7ed      	b.n	28ac <__lesf2+0x40>
    28d0:	2d00      	cmp	r5, #0
    28d2:	d1e9      	bne.n	28a8 <__lesf2+0x3c>
    28d4:	e7ea      	b.n	28ac <__lesf2+0x40>
    28d6:	42a2      	cmp	r2, r4
    28d8:	dc06      	bgt.n	28e8 <__lesf2+0x7c>
    28da:	dbdf      	blt.n	289c <__lesf2+0x30>
    28dc:	42ae      	cmp	r6, r5
    28de:	d803      	bhi.n	28e8 <__lesf2+0x7c>
    28e0:	2000      	movs	r0, #0
    28e2:	42ae      	cmp	r6, r5
    28e4:	d3da      	bcc.n	289c <__lesf2+0x30>
    28e6:	e7dc      	b.n	28a2 <__lesf2+0x36>
    28e8:	2001      	movs	r0, #1
    28ea:	4249      	negs	r1, r1
    28ec:	4308      	orrs	r0, r1
    28ee:	e7d8      	b.n	28a2 <__lesf2+0x36>

000028f0 <__libc_init_array>:
    28f0:	b570      	push	{r4, r5, r6, lr}
    28f2:	2600      	movs	r6, #0
    28f4:	4d0c      	ldr	r5, [pc, #48]	; (2928 <__libc_init_array+0x38>)
    28f6:	4c0d      	ldr	r4, [pc, #52]	; (292c <__libc_init_array+0x3c>)
    28f8:	1b64      	subs	r4, r4, r5
    28fa:	10a4      	asrs	r4, r4, #2
    28fc:	42a6      	cmp	r6, r4
    28fe:	d109      	bne.n	2914 <__libc_init_array+0x24>
    2900:	2600      	movs	r6, #0
    2902:	f000 f879 	bl	29f8 <_init>
    2906:	4d0a      	ldr	r5, [pc, #40]	; (2930 <__libc_init_array+0x40>)
    2908:	4c0a      	ldr	r4, [pc, #40]	; (2934 <__libc_init_array+0x44>)
    290a:	1b64      	subs	r4, r4, r5
    290c:	10a4      	asrs	r4, r4, #2
    290e:	42a6      	cmp	r6, r4
    2910:	d105      	bne.n	291e <__libc_init_array+0x2e>
    2912:	bd70      	pop	{r4, r5, r6, pc}
    2914:	00b3      	lsls	r3, r6, #2
    2916:	58eb      	ldr	r3, [r5, r3]
    2918:	4798      	blx	r3
    291a:	3601      	adds	r6, #1
    291c:	e7ee      	b.n	28fc <__libc_init_array+0xc>
    291e:	00b3      	lsls	r3, r6, #2
    2920:	58eb      	ldr	r3, [r5, r3]
    2922:	4798      	blx	r3
    2924:	3601      	adds	r6, #1
    2926:	e7f2      	b.n	290e <__libc_init_array+0x1e>
    2928:	00002a04 	.word	0x00002a04
    292c:	00002a04 	.word	0x00002a04
    2930:	00002a04 	.word	0x00002a04
    2934:	00002a08 	.word	0x00002a08
    2938:	0000086c 	.word	0x0000086c
    293c:	000007bc 	.word	0x000007bc
    2940:	000007bc 	.word	0x000007bc
    2944:	000007ba 	.word	0x000007ba
    2948:	0000085e 	.word	0x0000085e
    294c:	0000085e 	.word	0x0000085e
    2950:	00000854 	.word	0x00000854
    2954:	000007ba 	.word	0x000007ba
    2958:	0000085e 	.word	0x0000085e
    295c:	00000854 	.word	0x00000854
    2960:	0000085e 	.word	0x0000085e
    2964:	000007ba 	.word	0x000007ba
    2968:	00000864 	.word	0x00000864
    296c:	00000864 	.word	0x00000864
    2970:	00000864 	.word	0x00000864
    2974:	000008f4 	.word	0x000008f4
    2978:	0000159c 	.word	0x0000159c
    297c:	0000157e 	.word	0x0000157e
    2980:	00001538 	.word	0x00001538
    2984:	00001456 	.word	0x00001456
    2988:	00001538 	.word	0x00001538
    298c:	00001570 	.word	0x00001570
    2990:	00001538 	.word	0x00001538
    2994:	00001456 	.word	0x00001456
    2998:	0000157e 	.word	0x0000157e
    299c:	0000157e 	.word	0x0000157e
    29a0:	00001570 	.word	0x00001570
    29a4:	00001456 	.word	0x00001456
    29a8:	0000144e 	.word	0x0000144e
    29ac:	0000144e 	.word	0x0000144e
    29b0:	0000144e 	.word	0x0000144e
    29b4:	000017b4 	.word	0x000017b4
    29b8:	00001bfc 	.word	0x00001bfc
    29bc:	00001abc 	.word	0x00001abc
    29c0:	00001abc 	.word	0x00001abc
    29c4:	00001ab8 	.word	0x00001ab8
    29c8:	00001bd4 	.word	0x00001bd4
    29cc:	00001bd4 	.word	0x00001bd4
    29d0:	00001bc6 	.word	0x00001bc6
    29d4:	00001ab8 	.word	0x00001ab8
    29d8:	00001bd4 	.word	0x00001bd4
    29dc:	00001bc6 	.word	0x00001bc6
    29e0:	00001bd4 	.word	0x00001bd4
    29e4:	00001ab8 	.word	0x00001ab8
    29e8:	00001bdc 	.word	0x00001bdc
    29ec:	00001bdc 	.word	0x00001bdc
    29f0:	00001bdc 	.word	0x00001bdc
    29f4:	00001de0 	.word	0x00001de0

000029f8 <_init>:
    29f8:	b5f8      	push	{r3, r4, r5, r6, r7, lr}
    29fa:	46c0      	nop			; (mov r8, r8)
    29fc:	bcf8      	pop	{r3, r4, r5, r6, r7}
    29fe:	bc08      	pop	{r3}
    2a00:	469e      	mov	lr, r3
    2a02:	4770      	bx	lr

00002a04 <__init_array_start>:
    2a04:	000000dd 	.word	0x000000dd

00002a08 <_fini>:
    2a08:	b5f8      	push	{r3, r4, r5, r6, r7, lr}
    2a0a:	46c0      	nop			; (mov r8, r8)
    2a0c:	bcf8      	pop	{r3, r4, r5, r6, r7}
    2a0e:	bc08      	pop	{r3}
    2a10:	469e      	mov	lr, r3
    2a12:	4770      	bx	lr

00002a14 <__fini_array_start>:
    2a14:	000000b5 	.word	0x000000b5
